ARM GAS  C:\Users\ash750\AppData\Local\Temp\ccm8BDlp.s 			page 1


   1              		.syntax unified
   2              		.cpu cortex-m3
   3              		.fpu softvfp
   4              		.eabi_attribute 20, 1
   5              		.eabi_attribute 21, 1
   6              		.eabi_attribute 23, 3
   7              		.eabi_attribute 24, 1
   8              		.eabi_attribute 25, 1
   9              		.eabi_attribute 26, 1
  10              		.eabi_attribute 30, 1
  11              		.eabi_attribute 34, 1
  12              		.eabi_attribute 18, 4
  13              		.thumb
  14              		.syntax unified
  15              		.file	"CapSense_1.c"
  16              		.text
  17              	.Ltext0:
  18              		.cfi_sections	.debug_frame
  19              		.section	.text.CapSense_1_Enable,"ax",%progbits
  20              		.align	2
  21              		.global	CapSense_1_Enable
  22              		.thumb
  23              		.thumb_func
  24              		.type	CapSense_1_Enable, %function
  25              	CapSense_1_Enable:
  26              	.LFB1:
  27              		.file 1 "Generated_Source\\PSoC5\\CapSense_1.c"
   1:Generated_Source\PSoC5/CapSense_1.c **** /*******************************************************************************
   2:Generated_Source\PSoC5/CapSense_1.c **** * File Name: CapSense_1.c
   3:Generated_Source\PSoC5/CapSense_1.c **** * Version 3.50
   4:Generated_Source\PSoC5/CapSense_1.c **** *
   5:Generated_Source\PSoC5/CapSense_1.c **** * Description:
   6:Generated_Source\PSoC5/CapSense_1.c **** *  This file provides the source code of scanning APIs for the CapSense CSD 
   7:Generated_Source\PSoC5/CapSense_1.c **** *  component.
   8:Generated_Source\PSoC5/CapSense_1.c **** *
   9:Generated_Source\PSoC5/CapSense_1.c **** * Note:
  10:Generated_Source\PSoC5/CapSense_1.c **** *
  11:Generated_Source\PSoC5/CapSense_1.c **** ********************************************************************************
  12:Generated_Source\PSoC5/CapSense_1.c **** * Copyright 2008-2013, Cypress Semiconductor Corporation.  All rights reserved.
  13:Generated_Source\PSoC5/CapSense_1.c **** * You may use this file only in accordance with the license, terms, conditions,
  14:Generated_Source\PSoC5/CapSense_1.c **** * disclaimers, and limitations in the end user license agreement accompanying
  15:Generated_Source\PSoC5/CapSense_1.c **** * the software package with which this file was provided.
  16:Generated_Source\PSoC5/CapSense_1.c **** *******************************************************************************/
  17:Generated_Source\PSoC5/CapSense_1.c **** 
  18:Generated_Source\PSoC5/CapSense_1.c **** #include "CapSense_1.h"
  19:Generated_Source\PSoC5/CapSense_1.c **** #include "cyapicallbacks.h"
  20:Generated_Source\PSoC5/CapSense_1.c **** 
  21:Generated_Source\PSoC5/CapSense_1.c **** 
  22:Generated_Source\PSoC5/CapSense_1.c **** static uint8 CapSense_1_initVar = 0u;
  23:Generated_Source\PSoC5/CapSense_1.c ****             
  24:Generated_Source\PSoC5/CapSense_1.c **** /* Global software variables */
  25:Generated_Source\PSoC5/CapSense_1.c **** volatile uint8 CapSense_1_csv;            /* CapSense CSD status, control variable */
  26:Generated_Source\PSoC5/CapSense_1.c **** volatile uint8 CapSense_1_sensorIndex;    /* Index of scannig sensor */
  27:Generated_Source\PSoC5/CapSense_1.c **** 
  28:Generated_Source\PSoC5/CapSense_1.c **** /* AutoTunning start */
  29:Generated_Source\PSoC5/CapSense_1.c **** #if (CapSense_1_TUNING_METHOD == CapSense_1_AUTO_TUNING)
  30:Generated_Source\PSoC5/CapSense_1.c ****     uint8 CapSense_1_lowLevelTuningDone = 1u;
ARM GAS  C:\Users\ash750\AppData\Local\Temp\ccm8BDlp.s 			page 2


  31:Generated_Source\PSoC5/CapSense_1.c **** #endif /* (CapSense_1_TUNING_METHOD == CapSense_1_AUTO_TUNING) */
  32:Generated_Source\PSoC5/CapSense_1.c **** 
  33:Generated_Source\PSoC5/CapSense_1.c **** #if (CapSense_1_CURRENT_SOURCE == CapSense_1_EXTERNAL_RB)
  34:Generated_Source\PSoC5/CapSense_1.c ****     uint8  CapSense_1_extRbCh0Cur = CapSense_1_RBLEED1;
  35:Generated_Source\PSoC5/CapSense_1.c ****     #if (CapSense_1_DESIGN_TYPE == CapSense_1_TWO_CHANNELS_DESIGN)
  36:Generated_Source\PSoC5/CapSense_1.c ****         uint8  CapSense_1_extRbCh1Cur = (CapSense_1_RBLEED1 + CapSense_1_TOTAL_RB_NUMBER__CH0);
  37:Generated_Source\PSoC5/CapSense_1.c ****     #endif /* (CapSense_1_DESIGN_TYPE == CapSense_1_TWO_CHANNELS_DESIGN)*/ 
  38:Generated_Source\PSoC5/CapSense_1.c **** #endif /* (CapSense_1_CURRENT_SOURCE == CapSense_1_EXTERNAL_RB) */ 
  39:Generated_Source\PSoC5/CapSense_1.c ****         
  40:Generated_Source\PSoC5/CapSense_1.c **** /* Global array of Raw Counts */
  41:Generated_Source\PSoC5/CapSense_1.c **** uint16 CapSense_1_sensorRaw[CapSense_1_TOTAL_SENSOR_COUNT]; 
  42:Generated_Source\PSoC5/CapSense_1.c **** 
  43:Generated_Source\PSoC5/CapSense_1.c **** uint8 CapSense_1_sensorEnableMask[(((CapSense_1_TOTAL_SENSOR_COUNT - 1u) / 8u) + 1u)] = {
  44:Generated_Source\PSoC5/CapSense_1.c **** 0x1u, };
  45:Generated_Source\PSoC5/CapSense_1.c **** 
  46:Generated_Source\PSoC5/CapSense_1.c **** uint8 CYXDATA * const CYCODE CapSense_1_pcTable[] = {
  47:Generated_Source\PSoC5/CapSense_1.c ****     (uint8 CYXDATA *)CapSense_1_PortCH0__Button0__BTN__PC, 
  48:Generated_Source\PSoC5/CapSense_1.c **** };
  49:Generated_Source\PSoC5/CapSense_1.c **** 
  50:Generated_Source\PSoC5/CapSense_1.c **** const uint8 CYCODE CapSense_1_portTable[] = {
  51:Generated_Source\PSoC5/CapSense_1.c ****     CapSense_1_PortCH0__Button0__BTN__PORT, 
  52:Generated_Source\PSoC5/CapSense_1.c **** };
  53:Generated_Source\PSoC5/CapSense_1.c **** 
  54:Generated_Source\PSoC5/CapSense_1.c **** const uint8 CYCODE CapSense_1_maskTable[] = {
  55:Generated_Source\PSoC5/CapSense_1.c ****     CapSense_1_PortCH0__Button0__BTN__MASK,
  56:Generated_Source\PSoC5/CapSense_1.c **** };
  57:Generated_Source\PSoC5/CapSense_1.c **** 
  58:Generated_Source\PSoC5/CapSense_1.c **** uint8 CYXDATA * const CYCODE CapSense_1_csTable[] = {
  59:Generated_Source\PSoC5/CapSense_1.c ****     (uint8 CYXDATA *)CYREG_PRT0_CAPS_SEL, (uint8 CYXDATA *)CYREG_PRT1_CAPS_SEL, (uint8 CYXDATA *)CY
  60:Generated_Source\PSoC5/CapSense_1.c ****     (uint8 CYXDATA *)CYREG_PRT3_CAPS_SEL, (uint8 CYXDATA *)CYREG_PRT4_CAPS_SEL, (uint8 CYXDATA *)CY
  61:Generated_Source\PSoC5/CapSense_1.c ****     (uint8 CYXDATA *)CYREG_PRT6_CAPS_SEL, (uint8 CYXDATA *)CYREG_PRT15_CAPS_SEL,
  62:Generated_Source\PSoC5/CapSense_1.c **** };
  63:Generated_Source\PSoC5/CapSense_1.c **** 
  64:Generated_Source\PSoC5/CapSense_1.c **** const uint8 CYCODE CapSense_1_idacSettings[] = {
  65:Generated_Source\PSoC5/CapSense_1.c ****     200u,
  66:Generated_Source\PSoC5/CapSense_1.c **** };
  67:Generated_Source\PSoC5/CapSense_1.c **** 
  68:Generated_Source\PSoC5/CapSense_1.c **** const uint8 CYCODE CapSense_1_widgetResolution[] = {
  69:Generated_Source\PSoC5/CapSense_1.c ****     CapSense_1_PWM_RESOLUTION_10_BITS,
  70:Generated_Source\PSoC5/CapSense_1.c **** };
  71:Generated_Source\PSoC5/CapSense_1.c **** 
  72:Generated_Source\PSoC5/CapSense_1.c **** uint8 CapSense_1_analogSwitchDivider[CapSense_1_TOTAL_SCANSLOT_COUNT] = {
  73:Generated_Source\PSoC5/CapSense_1.c ****     11u, 
  74:Generated_Source\PSoC5/CapSense_1.c **** };
  75:Generated_Source\PSoC5/CapSense_1.c **** 
  76:Generated_Source\PSoC5/CapSense_1.c **** const uint8 CYCODE CapSense_1_widgetNumber[] = {
  77:Generated_Source\PSoC5/CapSense_1.c ****     0u, /* Button0__BTN */
  78:Generated_Source\PSoC5/CapSense_1.c ****     
  79:Generated_Source\PSoC5/CapSense_1.c **** };
  80:Generated_Source\PSoC5/CapSense_1.c **** 
  81:Generated_Source\PSoC5/CapSense_1.c **** 
  82:Generated_Source\PSoC5/CapSense_1.c **** 
  83:Generated_Source\PSoC5/CapSense_1.c **** 
  84:Generated_Source\PSoC5/CapSense_1.c **** /*******************************************************************************
  85:Generated_Source\PSoC5/CapSense_1.c **** * Function Name: CapSense_1_Init
  86:Generated_Source\PSoC5/CapSense_1.c **** ********************************************************************************
  87:Generated_Source\PSoC5/CapSense_1.c **** *
ARM GAS  C:\Users\ash750\AppData\Local\Temp\ccm8BDlp.s 			page 3


  88:Generated_Source\PSoC5/CapSense_1.c **** * Summary:
  89:Generated_Source\PSoC5/CapSense_1.c **** *  Inits default CapSense configuration provided with customizer that defines 
  90:Generated_Source\PSoC5/CapSense_1.c **** *  mode of component operations and resets all sensors to an inactive state.
  91:Generated_Source\PSoC5/CapSense_1.c **** *
  92:Generated_Source\PSoC5/CapSense_1.c **** * Parameters:
  93:Generated_Source\PSoC5/CapSense_1.c **** *  None
  94:Generated_Source\PSoC5/CapSense_1.c **** *
  95:Generated_Source\PSoC5/CapSense_1.c **** * Return:
  96:Generated_Source\PSoC5/CapSense_1.c **** *  None
  97:Generated_Source\PSoC5/CapSense_1.c **** *
  98:Generated_Source\PSoC5/CapSense_1.c **** *******************************************************************************/
  99:Generated_Source\PSoC5/CapSense_1.c **** void CapSense_1_Init(void) 
 100:Generated_Source\PSoC5/CapSense_1.c **** {
 101:Generated_Source\PSoC5/CapSense_1.c ****     #if ( (CapSense_1_PRS_OPTIONS) || \
 102:Generated_Source\PSoC5/CapSense_1.c ****           (CapSense_1_IMPLEMENTATION_CH0 == CapSense_1_MEASURE_IMPLEMENTATION_UDB) || \
 103:Generated_Source\PSoC5/CapSense_1.c ****           ( (CapSense_1_DESIGN_TYPE == CapSense_1_TWO_CHANNELS_DESIGN) && \
 104:Generated_Source\PSoC5/CapSense_1.c ****             (CapSense_1_IMPLEMENTATION_CH1 == CapSense_1_MEASURE_IMPLEMENTATION_UDB)) )
 105:Generated_Source\PSoC5/CapSense_1.c ****         
 106:Generated_Source\PSoC5/CapSense_1.c ****         uint8 enableInterrupts;
 107:Generated_Source\PSoC5/CapSense_1.c ****     #endif /* ( (CapSense_1_PRS_OPTIONS) || \
 108:Generated_Source\PSoC5/CapSense_1.c ****            * (CapSense_1_IMPLEMENTATION_CH0 == CapSense_1_MEASURE_IMPLEMENTATION_UDB) || \
 109:Generated_Source\PSoC5/CapSense_1.c ****            * ( (CapSense_1_DESIGN_TYPE == CapSense_1_TWO_CHANNELS_DESIGN) && \
 110:Generated_Source\PSoC5/CapSense_1.c ****            * (CapSense_1_IMPLEMENTATION_CH1 == CapSense_1_MEASURE_IMPLEMENTATION_UDB)) ) 
 111:Generated_Source\PSoC5/CapSense_1.c ****            */
 112:Generated_Source\PSoC5/CapSense_1.c ****     
 113:Generated_Source\PSoC5/CapSense_1.c ****     /* Clear all sensors */
 114:Generated_Source\PSoC5/CapSense_1.c ****     CapSense_1_ClearSensors();
 115:Generated_Source\PSoC5/CapSense_1.c **** 
 116:Generated_Source\PSoC5/CapSense_1.c ****     /* Set Prescaler */
 117:Generated_Source\PSoC5/CapSense_1.c ****     #if (CapSense_1_PRESCALER_OPTIONS == CapSense_1_PRESCALER_UDB)
 118:Generated_Source\PSoC5/CapSense_1.c ****         /* Do nothing = config without prescaler */
 119:Generated_Source\PSoC5/CapSense_1.c ****     #elif (CapSense_1_PRESCALER_OPTIONS == CapSense_1_PRESCALER_FF)
 120:Generated_Source\PSoC5/CapSense_1.c ****         CapSense_1_PRESCALER_CONTROL_REG   = (CapSense_1_PRESCALER_CTRL_ENABLE |
 121:Generated_Source\PSoC5/CapSense_1.c ****                                                     CapSense_1_PRESCALER_CTRL_MODE_CMP);
 122:Generated_Source\PSoC5/CapSense_1.c ****                                                
 123:Generated_Source\PSoC5/CapSense_1.c ****         CapSense_1_PRESCALER_CONTROL2_REG |= CapSense_1_PRESCALER_CTRL_CMP_LESS_EQ;
 124:Generated_Source\PSoC5/CapSense_1.c ****     #else
 125:Generated_Source\PSoC5/CapSense_1.c ****         /* Do nothing = config without prescaler */
 126:Generated_Source\PSoC5/CapSense_1.c ****     #endif  /* (CapSense_1_PRESCALER_OPTIONS == CapSense_1_PRESCALER_UDB) */
 127:Generated_Source\PSoC5/CapSense_1.c **** 
 128:Generated_Source\PSoC5/CapSense_1.c ****     /* Set PRS */
 129:Generated_Source\PSoC5/CapSense_1.c ****     #if (CapSense_1_PRS_OPTIONS)
 130:Generated_Source\PSoC5/CapSense_1.c ****         CapSense_1_SetAnalogSwitchesSource(CapSense_1_ANALOG_SWITCHES_SRC_PRS);
 131:Generated_Source\PSoC5/CapSense_1.c ****     #endif /* (CapSense_1_PRS_OPTIONS) */
 132:Generated_Source\PSoC5/CapSense_1.c **** 
 133:Generated_Source\PSoC5/CapSense_1.c ****     #if (CapSense_1_PRS_OPTIONS == CapSense_1_PRS_8BITS)
 134:Generated_Source\PSoC5/CapSense_1.c ****         /* Aux control set FIFO as REG */
 135:Generated_Source\PSoC5/CapSense_1.c ****         enableInterrupts = CyEnterCriticalSection();
 136:Generated_Source\PSoC5/CapSense_1.c ****         CapSense_1_AUX_CONTROL_A_REG |= CapSense_1_AUXCTRL_FIFO_SINGLE_REG;
 137:Generated_Source\PSoC5/CapSense_1.c ****         CyExitCriticalSection(enableInterrupts);
 138:Generated_Source\PSoC5/CapSense_1.c ****         
 139:Generated_Source\PSoC5/CapSense_1.c ****         /* Write polynomial */
 140:Generated_Source\PSoC5/CapSense_1.c ****         CapSense_1_POLYNOM_REG   = CapSense_1_PRS8_DEFAULT_POLYNOM;
 141:Generated_Source\PSoC5/CapSense_1.c ****         /* Write FIFO with seed */
 142:Generated_Source\PSoC5/CapSense_1.c ****         CapSense_1_SEED_COPY_REG = CapSense_1_MEASURE_FULL_RANGE_LOW;
 143:Generated_Source\PSoC5/CapSense_1.c ****         
 144:Generated_Source\PSoC5/CapSense_1.c ****     #elif (CapSense_1_PRS_OPTIONS == CapSense_1_PRS_16BITS)
ARM GAS  C:\Users\ash750\AppData\Local\Temp\ccm8BDlp.s 			page 4


 145:Generated_Source\PSoC5/CapSense_1.c ****         /* Aux control set FIFO as REG */ 
 146:Generated_Source\PSoC5/CapSense_1.c ****         enableInterrupts = CyEnterCriticalSection();  
 147:Generated_Source\PSoC5/CapSense_1.c ****         CapSense_1_AUX_CONTROL_A_REG |= CapSense_1_AUXCTRL_FIFO_SINGLE_REG;
 148:Generated_Source\PSoC5/CapSense_1.c ****         CapSense_1_AUX_CONTROL_B_REG |= CapSense_1_AUXCTRL_FIFO_SINGLE_REG;
 149:Generated_Source\PSoC5/CapSense_1.c ****         CyExitCriticalSection(enableInterrupts);
 150:Generated_Source\PSoC5/CapSense_1.c ****         
 151:Generated_Source\PSoC5/CapSense_1.c ****         /* Write polynomial */
 152:Generated_Source\PSoC5/CapSense_1.c ****         CY_SET_REG16(CapSense_1_POLYNOM_PTR, CapSense_1_PRS16_DEFAULT_POLYNOM);
 153:Generated_Source\PSoC5/CapSense_1.c ****         /* Write FIFO with seed */
 154:Generated_Source\PSoC5/CapSense_1.c ****         CY_SET_REG16(CapSense_1_SEED_COPY_PTR, CapSense_1_MEASURE_FULL_RANGE);
 155:Generated_Source\PSoC5/CapSense_1.c ****                 
 156:Generated_Source\PSoC5/CapSense_1.c ****     #elif (CapSense_1_PRS_OPTIONS == CapSense_1_PRS_16BITS_4X)
 157:Generated_Source\PSoC5/CapSense_1.c ****         /* Aux control set FIFO as REG */
 158:Generated_Source\PSoC5/CapSense_1.c ****         enableInterrupts = CyEnterCriticalSection();
 159:Generated_Source\PSoC5/CapSense_1.c ****         CapSense_1_AUX_CONTROL_A_REG  |= CapSense_1_AUXCTRL_FIFO_SINGLE_REG;
 160:Generated_Source\PSoC5/CapSense_1.c ****         CyExitCriticalSection(enableInterrupts);
 161:Generated_Source\PSoC5/CapSense_1.c ****         
 162:Generated_Source\PSoC5/CapSense_1.c ****         /* Write polynomial */
 163:Generated_Source\PSoC5/CapSense_1.c ****         CapSense_1_POLYNOM_A__D1_REG   = HI8(CapSense_1_PRS16_DEFAULT_POLYNOM);
 164:Generated_Source\PSoC5/CapSense_1.c ****         CapSense_1_POLYNOM_A__D0_REG   = LO8(CapSense_1_PRS16_DEFAULT_POLYNOM);
 165:Generated_Source\PSoC5/CapSense_1.c ****         /* Write FIFO with seed */
 166:Generated_Source\PSoC5/CapSense_1.c ****         CapSense_1_SEED_COPY_A__F1_REG = CapSense_1_MEASURE_FULL_RANGE_LOW;
 167:Generated_Source\PSoC5/CapSense_1.c ****         CapSense_1_SEED_COPY_A__F0_REG = CapSense_1_MEASURE_FULL_RANGE_LOW; 
 168:Generated_Source\PSoC5/CapSense_1.c ****         
 169:Generated_Source\PSoC5/CapSense_1.c ****     #else
 170:Generated_Source\PSoC5/CapSense_1.c ****         /* Do nothing = config without PRS */
 171:Generated_Source\PSoC5/CapSense_1.c ****     #endif  /* (CapSense_1_PRS_OPTIONS == CapSense_1_PRS_8BITS) */ 
 172:Generated_Source\PSoC5/CapSense_1.c ****     
 173:Generated_Source\PSoC5/CapSense_1.c ****     /* Set ScanSpeed */
 174:Generated_Source\PSoC5/CapSense_1.c ****     CapSense_1_SCANSPEED_PERIOD_REG = CapSense_1_SCANSPEED_VALUE;
 175:Generated_Source\PSoC5/CapSense_1.c ****     
 176:Generated_Source\PSoC5/CapSense_1.c ****     /* Set the Measure */
 177:Generated_Source\PSoC5/CapSense_1.c ****     #if (CapSense_1_IMPLEMENTATION_CH0 == CapSense_1_MEASURE_IMPLEMENTATION_FF)
 178:Generated_Source\PSoC5/CapSense_1.c ****         /* Window PWM */
 179:Generated_Source\PSoC5/CapSense_1.c ****         CapSense_1_PWM_CH0_CONTROL_REG      = CapSense_1_MEASURE_CTRL_ENABLE;
 180:Generated_Source\PSoC5/CapSense_1.c ****         CapSense_1_PWM_CH0_CONTROL2_REG    |= CapSense_1_MEASURE_CTRL_PULSEWIDTH;
 181:Generated_Source\PSoC5/CapSense_1.c ****         CY_SET_REG16(CapSense_1_PWM_CH0_COUNTER_PTR, CapSense_1_MEASURE_FULL_RANGE);
 182:Generated_Source\PSoC5/CapSense_1.c ****         
 183:Generated_Source\PSoC5/CapSense_1.c ****         /* Raw Counter */
 184:Generated_Source\PSoC5/CapSense_1.c ****         CapSense_1_RAW_CH0_CONTROL_REG      = CapSense_1_MEASURE_CTRL_ENABLE;
 185:Generated_Source\PSoC5/CapSense_1.c ****         CapSense_1_RAW_CH0_CONTROL2_REG    |= CapSense_1_MEASURE_CTRL_PULSEWIDTH;
 186:Generated_Source\PSoC5/CapSense_1.c ****         CY_SET_REG16(CapSense_1_RAW_CH0_PERIOD_PTR, CapSense_1_MEASURE_FULL_RANGE);
 187:Generated_Source\PSoC5/CapSense_1.c ****     
 188:Generated_Source\PSoC5/CapSense_1.c ****     #else
 189:Generated_Source\PSoC5/CapSense_1.c ****         /*Window PWM and Raw Counter AUX set */
 190:Generated_Source\PSoC5/CapSense_1.c ****         enableInterrupts = CyEnterCriticalSection();
 191:Generated_Source\PSoC5/CapSense_1.c ****         CapSense_1_PWM_CH0_AUX_CONTROL_REG |= CapSense_1_AUXCTRL_FIFO_SINGLE_REG;
 192:Generated_Source\PSoC5/CapSense_1.c ****         CapSense_1_RAW_CH0_AUX_CONTROL_REG |= CapSense_1_AUXCTRL_FIFO_SINGLE_REG;
 193:Generated_Source\PSoC5/CapSense_1.c ****         CyExitCriticalSection(enableInterrupts);
 194:Generated_Source\PSoC5/CapSense_1.c ****         
 195:Generated_Source\PSoC5/CapSense_1.c ****         /* Window PWM */
 196:Generated_Source\PSoC5/CapSense_1.c ****         CapSense_1_PWM_CH0_ADD_VALUE_REG    = CapSense_1_MEASURE_FULL_RANGE_LOW;
 197:Generated_Source\PSoC5/CapSense_1.c ****         CapSense_1_PWM_CH0_PERIOD_LO_REG    = CapSense_1_MEASURE_FULL_RANGE_LOW;
 198:Generated_Source\PSoC5/CapSense_1.c ****         CapSense_1_PWM_CH0_COUNTER_LO_REG   = CapSense_1_MEASURE_FULL_RANGE_LOW;
 199:Generated_Source\PSoC5/CapSense_1.c ****         
 200:Generated_Source\PSoC5/CapSense_1.c ****         /* Raw Counter */
 201:Generated_Source\PSoC5/CapSense_1.c ****         CapSense_1_RAW_CH0_ADD_VALUE_REG    = CapSense_1_MEASURE_FULL_RANGE_LOW;
ARM GAS  C:\Users\ash750\AppData\Local\Temp\ccm8BDlp.s 			page 5


 202:Generated_Source\PSoC5/CapSense_1.c ****         CapSense_1_RAW_CH0_PERIOD_HI_REG    = CapSense_1_MEASURE_FULL_RANGE_LOW;
 203:Generated_Source\PSoC5/CapSense_1.c ****         CapSense_1_RAW_CH0_PERIOD_LO_REG    = CapSense_1_MEASURE_FULL_RANGE_LOW;
 204:Generated_Source\PSoC5/CapSense_1.c ****         
 205:Generated_Source\PSoC5/CapSense_1.c ****     #endif  /* (CapSense_1_IMPLEMENTATION_CH0 == CapSense_1_MEASURE_IMPLEMENTATION_FF) */ 
 206:Generated_Source\PSoC5/CapSense_1.c ****     
 207:Generated_Source\PSoC5/CapSense_1.c ****     #if (CapSense_1_DESIGN_TYPE == CapSense_1_TWO_CHANNELS_DESIGN)
 208:Generated_Source\PSoC5/CapSense_1.c ****         #if (CapSense_1_IMPLEMENTATION_CH1 == CapSense_1_MEASURE_IMPLEMENTATION_FF)
 209:Generated_Source\PSoC5/CapSense_1.c ****             /* Window PWM */
 210:Generated_Source\PSoC5/CapSense_1.c ****             CapSense_1_PWM_CH1_CONTROL_REG      = CapSense_1_MEASURE_CTRL_ENABLE;
 211:Generated_Source\PSoC5/CapSense_1.c ****             CapSense_1_PWM_CH1_CONTROL2_REG    |= CapSense_1_MEASURE_CTRL_PULSEWIDTH;
 212:Generated_Source\PSoC5/CapSense_1.c ****             CY_SET_REG16(CapSense_1_PWM_CH1_COUNTER_PTR, CapSense_1_MEASURE_FULL_RANGE);
 213:Generated_Source\PSoC5/CapSense_1.c ****             
 214:Generated_Source\PSoC5/CapSense_1.c ****             /* Raw Counter */
 215:Generated_Source\PSoC5/CapSense_1.c ****             CapSense_1_RAW_CH1_CONTROL_REG      = CapSense_1_MEASURE_CTRL_ENABLE;
 216:Generated_Source\PSoC5/CapSense_1.c ****             CapSense_1_RAW_CH1_CONTROL2_REG    |= CapSense_1_MEASURE_CTRL_PULSEWIDTH;
 217:Generated_Source\PSoC5/CapSense_1.c ****             CY_SET_REG16(CapSense_1_RAW_CH1_PERIOD_PTR, CapSense_1_MEASURE_FULL_RANGE);
 218:Generated_Source\PSoC5/CapSense_1.c ****            
 219:Generated_Source\PSoC5/CapSense_1.c ****         #else
 220:Generated_Source\PSoC5/CapSense_1.c ****             /*Window PWM and Raw Counter AUX set */
 221:Generated_Source\PSoC5/CapSense_1.c ****             enableInterrupts = CyEnterCriticalSection();
 222:Generated_Source\PSoC5/CapSense_1.c ****             CapSense_1_PWM_CH1_AUX_CONTROL_REG |= CapSense_1_AUXCTRL_FIFO_SINGLE_REG;
 223:Generated_Source\PSoC5/CapSense_1.c ****             CapSense_1_RAW_CH1_AUX_CONTROL_REG |= CapSense_1_AUXCTRL_FIFO_SINGLE_REG;
 224:Generated_Source\PSoC5/CapSense_1.c ****             CyExitCriticalSection(enableInterrupts);
 225:Generated_Source\PSoC5/CapSense_1.c ****             
 226:Generated_Source\PSoC5/CapSense_1.c ****             /* Window PWM */
 227:Generated_Source\PSoC5/CapSense_1.c ****             CapSense_1_PWM_CH1_ADD_VALUE_REG    = CapSense_1_MEASURE_FULL_RANGE_LOW;
 228:Generated_Source\PSoC5/CapSense_1.c ****             CapSense_1_PWM_CH1_PERIOD_LO_REG    = CapSense_1_MEASURE_FULL_RANGE_LOW;
 229:Generated_Source\PSoC5/CapSense_1.c ****             CapSense_1_PWM_CH1_COUNTER_LO_REG   = CapSense_1_MEASURE_FULL_RANGE_LOW;
 230:Generated_Source\PSoC5/CapSense_1.c ****             
 231:Generated_Source\PSoC5/CapSense_1.c ****             /* Raw Counter */
 232:Generated_Source\PSoC5/CapSense_1.c ****             
 233:Generated_Source\PSoC5/CapSense_1.c ****             CapSense_1_RAW_CH1_ADD_VALUE_REG    = CapSense_1_MEASURE_FULL_RANGE_LOW;
 234:Generated_Source\PSoC5/CapSense_1.c ****             CapSense_1_RAW_CH1_PERIOD_HI_REG    = CapSense_1_MEASURE_FULL_RANGE_LOW;
 235:Generated_Source\PSoC5/CapSense_1.c ****             CapSense_1_RAW_CH1_PERIOD_LO_REG    = CapSense_1_MEASURE_FULL_RANGE_LOW;
 236:Generated_Source\PSoC5/CapSense_1.c ****             
 237:Generated_Source\PSoC5/CapSense_1.c ****         #endif  /* (CapSense_1_IMPLEMENTATION_CH1 == CapSense_1_MEASURE_IMPLEMENTATION_FF) */
 238:Generated_Source\PSoC5/CapSense_1.c ****     
 239:Generated_Source\PSoC5/CapSense_1.c ****     #endif  /* (CapSense_1_DESIGN_TYPE == TWO_CHANNELS_DESIGN) */
 240:Generated_Source\PSoC5/CapSense_1.c ****     
 241:Generated_Source\PSoC5/CapSense_1.c ****     /* Setup ISR */
 242:Generated_Source\PSoC5/CapSense_1.c ****     CyIntDisable(CapSense_1_IsrCH0_ISR_NUMBER);
 243:Generated_Source\PSoC5/CapSense_1.c ****     (void)CyIntSetVector(CapSense_1_IsrCH0_ISR_NUMBER, &CapSense_1_IsrCH0_ISR);
 244:Generated_Source\PSoC5/CapSense_1.c ****     CyIntSetPriority(CapSense_1_IsrCH0_ISR_NUMBER, CapSense_1_IsrCH0_ISR_PRIORITY);
 245:Generated_Source\PSoC5/CapSense_1.c ****     
 246:Generated_Source\PSoC5/CapSense_1.c ****     #if (CapSense_1_DESIGN_TYPE == CapSense_1_TWO_CHANNELS_DESIGN)
 247:Generated_Source\PSoC5/CapSense_1.c ****         CyIntDisable(CapSense_1_IsrCH1_ISR_NUMBER);
 248:Generated_Source\PSoC5/CapSense_1.c ****         CyIntSetVector(CapSense_1_IsrCH1_ISR_NUMBER, CapSense_1_IsrCH1_ISR);
 249:Generated_Source\PSoC5/CapSense_1.c ****         CyIntSetPriority(CapSense_1_IsrCH1_ISR_NUMBER, CapSense_1_IsrCH1_ISR_PRIORITY);
 250:Generated_Source\PSoC5/CapSense_1.c ****     #endif  /* CapSense_1_DESIGN_TYPE */
 251:Generated_Source\PSoC5/CapSense_1.c ****     
 252:Generated_Source\PSoC5/CapSense_1.c ****     /* Setup AMux Bus: Connect Cmod, Cmp, Idac */
 253:Generated_Source\PSoC5/CapSense_1.c ****     CapSense_1_AMuxCH0_Init();
 254:Generated_Source\PSoC5/CapSense_1.c ****     CapSense_1_AMuxCH0_Connect(CapSense_1_AMuxCH0_CMOD_CHANNEL);
 255:Generated_Source\PSoC5/CapSense_1.c ****     CapSense_1_AMuxCH0_Connect(CapSense_1_AMuxCH0_CMP_VP_CHANNEL);
 256:Generated_Source\PSoC5/CapSense_1.c ****     #if (CapSense_1_CURRENT_SOURCE)
 257:Generated_Source\PSoC5/CapSense_1.c ****         CapSense_1_AMuxCH0_Connect(CapSense_1_AMuxCH0_IDAC_CHANNEL);
 258:Generated_Source\PSoC5/CapSense_1.c ****     #endif  /* CapSense_1_CURRENT_SOURCE */
ARM GAS  C:\Users\ash750\AppData\Local\Temp\ccm8BDlp.s 			page 6


 259:Generated_Source\PSoC5/CapSense_1.c ****     
 260:Generated_Source\PSoC5/CapSense_1.c ****     #if (CapSense_1_DESIGN_TYPE == CapSense_1_TWO_CHANNELS_DESIGN) 
 261:Generated_Source\PSoC5/CapSense_1.c ****         CapSense_1_AMuxCH1_Init();
 262:Generated_Source\PSoC5/CapSense_1.c ****         CapSense_1_AMuxCH1_Connect(CapSense_1_AMuxCH1_CMOD_CHANNEL);
 263:Generated_Source\PSoC5/CapSense_1.c ****         CapSense_1_AMuxCH1_Connect(CapSense_1_AMuxCH1_CMP_VP_CHANNEL);
 264:Generated_Source\PSoC5/CapSense_1.c ****         #if (CapSense_1_CURRENT_SOURCE)
 265:Generated_Source\PSoC5/CapSense_1.c ****             CapSense_1_AMuxCH1_Connect(CapSense_1_AMuxCH1_IDAC_CHANNEL);
 266:Generated_Source\PSoC5/CapSense_1.c ****         #endif  /* CapSense_1_CURRENT_SOURCE */
 267:Generated_Source\PSoC5/CapSense_1.c ****     #endif  /* CapSense_1_DESIGN_TYPE */
 268:Generated_Source\PSoC5/CapSense_1.c ****     
 269:Generated_Source\PSoC5/CapSense_1.c ****     /* Int Rb */
 270:Generated_Source\PSoC5/CapSense_1.c ****     #if (CapSense_1_CURRENT_SOURCE == CapSense_1_EXTERNAL_RB)
 271:Generated_Source\PSoC5/CapSense_1.c ****         CapSense_1_InitRb();
 272:Generated_Source\PSoC5/CapSense_1.c ****     #endif /* (CapSense_1_CURRENT_SOURCE == CapSense_1_EXTERNAL_RB) */
 273:Generated_Source\PSoC5/CapSense_1.c ****     
 274:Generated_Source\PSoC5/CapSense_1.c ****     /* Enable window generation */
 275:Generated_Source\PSoC5/CapSense_1.c ****     CapSense_1_CONTROL_REG |= CapSense_1_CTRL_WINDOW_EN__CH0;
 276:Generated_Source\PSoC5/CapSense_1.c ****     #if (CapSense_1_DESIGN_TYPE == CapSense_1_TWO_CHANNELS_DESIGN)
 277:Generated_Source\PSoC5/CapSense_1.c ****         CapSense_1_CONTROL_REG |= CapSense_1_CTRL_WINDOW_EN__CH1;
 278:Generated_Source\PSoC5/CapSense_1.c ****     #endif  /* CapSense_1_DESIGN_TYPE */
 279:Generated_Source\PSoC5/CapSense_1.c ****     
 280:Generated_Source\PSoC5/CapSense_1.c ****     /* Initialize Cmp and Idac */
 281:Generated_Source\PSoC5/CapSense_1.c ****     CapSense_1_CompCH0_Init();
 282:Generated_Source\PSoC5/CapSense_1.c ****     #if (CapSense_1_CURRENT_SOURCE)
 283:Generated_Source\PSoC5/CapSense_1.c ****         CapSense_1_IdacCH0_Init();
 284:Generated_Source\PSoC5/CapSense_1.c ****         CapSense_1_IdacCH0_SetPolarity(CapSense_1_IdacCH0_IDIR);
 285:Generated_Source\PSoC5/CapSense_1.c ****         CapSense_1_IdacCH0_SetRange(CapSense_1_IDAC_RANGE_VALUE);
 286:Generated_Source\PSoC5/CapSense_1.c ****         CapSense_1_IdacCH0_SetValue(CapSense_1_TURN_OFF_IDAC);
 287:Generated_Source\PSoC5/CapSense_1.c ****     #endif  /* CapSense_1_CURRENT_SOURCE */
 288:Generated_Source\PSoC5/CapSense_1.c ****     
 289:Generated_Source\PSoC5/CapSense_1.c ****     #if (CapSense_1_DESIGN_TYPE == CapSense_1_TWO_CHANNELS_DESIGN) 
 290:Generated_Source\PSoC5/CapSense_1.c ****         CapSense_1_CompCH1_Init();
 291:Generated_Source\PSoC5/CapSense_1.c ****         #if (CapSense_1_CURRENT_SOURCE)
 292:Generated_Source\PSoC5/CapSense_1.c ****             CapSense_1_IdacCH1_Init();
 293:Generated_Source\PSoC5/CapSense_1.c ****             CapSense_1_IdacCH1_SetPolarity(CapSense_1_IdacCH1_IDIR);
 294:Generated_Source\PSoC5/CapSense_1.c ****             CapSense_1_IdacCH1_SetRange(CapSense_1_IDAC_RANGE_VALUE);
 295:Generated_Source\PSoC5/CapSense_1.c ****             CapSense_1_IdacCH1_SetValue(CapSense_1_TURN_OFF_IDAC);
 296:Generated_Source\PSoC5/CapSense_1.c ****         #endif  /* CapSense_1_CURRENT_SOURCE */
 297:Generated_Source\PSoC5/CapSense_1.c ****     #endif  /* CapSense_1_DESIGN_TYPE */
 298:Generated_Source\PSoC5/CapSense_1.c ****     
 299:Generated_Source\PSoC5/CapSense_1.c ****     /* Initialize Vref if as VDAC */
 300:Generated_Source\PSoC5/CapSense_1.c ****     #if (CapSense_1_VREF_OPTIONS == CapSense_1_VREF_VDAC)
 301:Generated_Source\PSoC5/CapSense_1.c ****         CapSense_1_VdacRefCH0_Init();
 302:Generated_Source\PSoC5/CapSense_1.c ****         #if (CapSense_1_DESIGN_TYPE == CapSense_1_TWO_CHANNELS_DESIGN)
 303:Generated_Source\PSoC5/CapSense_1.c ****             CapSense_1_VdacRefCH1_Init();
 304:Generated_Source\PSoC5/CapSense_1.c ****         #endif  /* CapSense_1_DESIGN_TYPE */
 305:Generated_Source\PSoC5/CapSense_1.c ****     #endif  /* CapSense_1_VREF_OPTIONS */
 306:Generated_Source\PSoC5/CapSense_1.c **** }
 307:Generated_Source\PSoC5/CapSense_1.c **** 
 308:Generated_Source\PSoC5/CapSense_1.c **** 
 309:Generated_Source\PSoC5/CapSense_1.c **** /*******************************************************************************
 310:Generated_Source\PSoC5/CapSense_1.c **** * Function Name: CapSense_1_Enable
 311:Generated_Source\PSoC5/CapSense_1.c **** ********************************************************************************
 312:Generated_Source\PSoC5/CapSense_1.c **** *
 313:Generated_Source\PSoC5/CapSense_1.c **** * Summary:
 314:Generated_Source\PSoC5/CapSense_1.c **** *  Enables active mode power template bits for number of component used within 
 315:Generated_Source\PSoC5/CapSense_1.c **** *  CapSense.
ARM GAS  C:\Users\ash750\AppData\Local\Temp\ccm8BDlp.s 			page 7


 316:Generated_Source\PSoC5/CapSense_1.c **** *
 317:Generated_Source\PSoC5/CapSense_1.c **** * Parameters:
 318:Generated_Source\PSoC5/CapSense_1.c **** *  None
 319:Generated_Source\PSoC5/CapSense_1.c **** *
 320:Generated_Source\PSoC5/CapSense_1.c **** * Return:
 321:Generated_Source\PSoC5/CapSense_1.c **** *  None
 322:Generated_Source\PSoC5/CapSense_1.c **** *
 323:Generated_Source\PSoC5/CapSense_1.c **** *******************************************************************************/
 324:Generated_Source\PSoC5/CapSense_1.c **** void CapSense_1_Enable(void) 
 325:Generated_Source\PSoC5/CapSense_1.c **** {
  28              		.loc 1 325 0
  29              		.cfi_startproc
  30              		@ args = 0, pretend = 0, frame = 0
  31              		@ frame_needed = 0, uses_anonymous_args = 0
  32 0000 10B5     		push	{r4, lr}
  33              		.cfi_def_cfa_offset 8
  34              		.cfi_offset 4, -8
  35              		.cfi_offset 14, -4
 326:Generated_Source\PSoC5/CapSense_1.c ****     uint8 enableInterrupts;
 327:Generated_Source\PSoC5/CapSense_1.c ****     
 328:Generated_Source\PSoC5/CapSense_1.c ****     enableInterrupts = CyEnterCriticalSection();
  36              		.loc 1 328 0
  37 0002 FFF7FEFF 		bl	CyEnterCriticalSection
  38              	.LVL0:
  39 0006 0446     		mov	r4, r0
  40              	.LVL1:
 329:Generated_Source\PSoC5/CapSense_1.c ****     
 330:Generated_Source\PSoC5/CapSense_1.c ****     /* Enable Prescaler */
 331:Generated_Source\PSoC5/CapSense_1.c ****     #if (CapSense_1_PRESCALER_OPTIONS == CapSense_1_PRESCALER_UDB)
 332:Generated_Source\PSoC5/CapSense_1.c ****         /* Do nothing  for UDB */
 333:Generated_Source\PSoC5/CapSense_1.c ****     #elif (CapSense_1_PRESCALER_OPTIONS == CapSense_1_PRESCALER_FF)
 334:Generated_Source\PSoC5/CapSense_1.c ****         CapSense_1_PRESCALER_ACT_PWRMGR_REG  |= CapSense_1_PRESCALER_ACT_PWR_EN;
 335:Generated_Source\PSoC5/CapSense_1.c ****         CapSense_1_PRESCALER_STBY_PWRMGR_REG |= CapSense_1_PRESCALER_STBY_PWR_EN;
 336:Generated_Source\PSoC5/CapSense_1.c ****         
 337:Generated_Source\PSoC5/CapSense_1.c ****     #else
 338:Generated_Source\PSoC5/CapSense_1.c ****         /* Do nothing = config without prescaler */
 339:Generated_Source\PSoC5/CapSense_1.c ****     #endif  /* (CapSense_1_PRESCALER_OPTIONS == CapSense_1_PRESCALER_UDB) */
 340:Generated_Source\PSoC5/CapSense_1.c ****     
 341:Generated_Source\PSoC5/CapSense_1.c ****     /* Enable ScanSpeed */
 342:Generated_Source\PSoC5/CapSense_1.c ****     CapSense_1_SCANSPEED_AUX_CONTROL_REG |= CapSense_1_SCANSPEED_CTRL_ENABLE;
  41              		.loc 1 342 0
  42 0008 134A     		ldr	r2, .L3
  43 000a 1378     		ldrb	r3, [r2]	@ zero_extendqisi2
  44 000c 43F02003 		orr	r3, r3, #32
  45 0010 1370     		strb	r3, [r2]
 343:Generated_Source\PSoC5/CapSense_1.c ****     
 344:Generated_Source\PSoC5/CapSense_1.c ****     /* Enable Measure CH0 */
 345:Generated_Source\PSoC5/CapSense_1.c ****     #if (CapSense_1_IMPLEMENTATION_CH0 == CapSense_1_MEASURE_IMPLEMENTATION_FF)
 346:Generated_Source\PSoC5/CapSense_1.c ****         /* Window PWM */
 347:Generated_Source\PSoC5/CapSense_1.c ****         CapSense_1_PWM_CH0_ACT_PWRMGR_REG  |= CapSense_1_PWM_CH0_ACT_PWR_EN;
 348:Generated_Source\PSoC5/CapSense_1.c ****         CapSense_1_PWM_CH0_STBY_PWRMGR_REG |= CapSense_1_PWM_CH0_STBY_PWR_EN;
 349:Generated_Source\PSoC5/CapSense_1.c ****         
 350:Generated_Source\PSoC5/CapSense_1.c ****         /* Raw Counter */
 351:Generated_Source\PSoC5/CapSense_1.c ****         CapSense_1_RAW_CH0_ACT_PWRMGR_REG  |= CapSense_1_RAW_CH0_ACT_PWR_EN;
 352:Generated_Source\PSoC5/CapSense_1.c ****         CapSense_1_RAW_CH0_STBY_PWRMGR_REG |= CapSense_1_RAW_CH0_STBY_PWR_EN;
 353:Generated_Source\PSoC5/CapSense_1.c ****         
 354:Generated_Source\PSoC5/CapSense_1.c ****     #else
ARM GAS  C:\Users\ash750\AppData\Local\Temp\ccm8BDlp.s 			page 8


 355:Generated_Source\PSoC5/CapSense_1.c ****         /* Window PWM -  Do nothing */
 356:Generated_Source\PSoC5/CapSense_1.c ****         /* Raw Counter - Do nothing */
 357:Generated_Source\PSoC5/CapSense_1.c ****         
 358:Generated_Source\PSoC5/CapSense_1.c ****     #endif  /* (CapSense_1_IMPLEMENTATION_CH0 == CapSense_1_MEASURE_IMPLEMENTATION_FF) */ 
 359:Generated_Source\PSoC5/CapSense_1.c ****     
 360:Generated_Source\PSoC5/CapSense_1.c ****     /* Enable Measure CH1*/
 361:Generated_Source\PSoC5/CapSense_1.c ****     #if (CapSense_1_DESIGN_TYPE == CapSense_1_TWO_CHANNELS_DESIGN)
 362:Generated_Source\PSoC5/CapSense_1.c ****         #if (CapSense_1_IMPLEMENTATION_CH1 == CapSense_1_MEASURE_IMPLEMENTATION_FF)
 363:Generated_Source\PSoC5/CapSense_1.c ****             /* Window PWM */
 364:Generated_Source\PSoC5/CapSense_1.c ****             CapSense_1_PWM_CH1_ACT_PWRMGR_REG  |= CapSense_1_PWM_CH1_ACT_PWR_EN;
 365:Generated_Source\PSoC5/CapSense_1.c ****             CapSense_1_PWM_CH1_STBY_PWRMGR_REG |= CapSense_1_PWM_CH1_STBY_PWR_EN;
 366:Generated_Source\PSoC5/CapSense_1.c ****             
 367:Generated_Source\PSoC5/CapSense_1.c ****             /* Raw Counter */
 368:Generated_Source\PSoC5/CapSense_1.c ****             CapSense_1_RAW_CH1_ACT_PWRMGR_REG  |= CapSense_1_RAW_CH1_ACT_PWR_EN;
 369:Generated_Source\PSoC5/CapSense_1.c ****             CapSense_1_RAW_CH1_STBY_PWRMGR_REG |= CapSense_1_RAW_CH1_STBY_PWR_EN;
 370:Generated_Source\PSoC5/CapSense_1.c ****            
 371:Generated_Source\PSoC5/CapSense_1.c ****         #else
 372:Generated_Source\PSoC5/CapSense_1.c ****         /* Window PWM -  Do nothing */
 373:Generated_Source\PSoC5/CapSense_1.c ****         /* Raw Counter - Do nothing */
 374:Generated_Source\PSoC5/CapSense_1.c ****         
 375:Generated_Source\PSoC5/CapSense_1.c ****         #endif  /* (CapSense_1_IMPLEMENTATION_CH1 == CapSense_1_MEASURE_IMPLEMENTATION_FF) */
 376:Generated_Source\PSoC5/CapSense_1.c ****     
 377:Generated_Source\PSoC5/CapSense_1.c ****     #endif  /* (CapSense_1_DESIGN_TYPE == TWO_CHANNELS_DESIGN)*/
 378:Generated_Source\PSoC5/CapSense_1.c ****     
 379:Generated_Source\PSoC5/CapSense_1.c ****     /* Enable the Clock */
 380:Generated_Source\PSoC5/CapSense_1.c ****     #if (CapSense_1_CLOCK_SOURCE == CapSense_1_INTERNAL_CLOCK)
 381:Generated_Source\PSoC5/CapSense_1.c ****        CapSense_1_IntClock_Enable();
  46              		.loc 1 381 0
  47 0012 FFF7FEFF 		bl	CapSense_1_IntClock_Start
  48              	.LVL2:
 382:Generated_Source\PSoC5/CapSense_1.c ****     #endif  /* CapSense_1_CLOCK_SOURCE */
 383:Generated_Source\PSoC5/CapSense_1.c ****     
 384:Generated_Source\PSoC5/CapSense_1.c ****     /* Setup Cmp and Idac */
 385:Generated_Source\PSoC5/CapSense_1.c ****     CapSense_1_CompCH0_Enable();
  49              		.loc 1 385 0
  50 0016 FFF7FEFF 		bl	CapSense_1_CompCH0_Enable
  51              	.LVL3:
 386:Generated_Source\PSoC5/CapSense_1.c ****     #if (CapSense_1_CURRENT_SOURCE)
 387:Generated_Source\PSoC5/CapSense_1.c ****         CapSense_1_IdacCH0_Enable();
  52              		.loc 1 387 0
  53 001a FFF7FEFF 		bl	CapSense_1_IdacCH0_Enable
  54              	.LVL4:
 388:Generated_Source\PSoC5/CapSense_1.c ****     #endif  /* CapSense_1_CURRENT_SOURCE */
 389:Generated_Source\PSoC5/CapSense_1.c ****     
 390:Generated_Source\PSoC5/CapSense_1.c ****     #if (CapSense_1_DESIGN_TYPE == CapSense_1_TWO_CHANNELS_DESIGN) 
 391:Generated_Source\PSoC5/CapSense_1.c ****         CapSense_1_CompCH1_Enable();
 392:Generated_Source\PSoC5/CapSense_1.c ****         #if (CapSense_1_CURRENT_SOURCE)
 393:Generated_Source\PSoC5/CapSense_1.c ****             CapSense_1_IdacCH1_Enable();
 394:Generated_Source\PSoC5/CapSense_1.c ****         #endif  /* CapSense_1_CURRENT_SOURCE */
 395:Generated_Source\PSoC5/CapSense_1.c ****     #endif  /* CapSense_1_DESIGN_TYPE */
 396:Generated_Source\PSoC5/CapSense_1.c ****     
 397:Generated_Source\PSoC5/CapSense_1.c ****     /* Enable Vref */
 398:Generated_Source\PSoC5/CapSense_1.c ****     #if (CapSense_1_VREF_OPTIONS == CapSense_1_VREF_VDAC)
 399:Generated_Source\PSoC5/CapSense_1.c ****         CapSense_1_VdacRefCH0_Enable();
 400:Generated_Source\PSoC5/CapSense_1.c ****         CapSense_1_VdacRefCH0_SetValue(CapSense_1_VdacRefCH0_DEFAULT_DATA);
 401:Generated_Source\PSoC5/CapSense_1.c ****         #if (CapSense_1_DESIGN_TYPE == CapSense_1_TWO_CHANNELS_DESIGN)
 402:Generated_Source\PSoC5/CapSense_1.c ****             CapSense_1_VdacRefCH1_Enable();
ARM GAS  C:\Users\ash750\AppData\Local\Temp\ccm8BDlp.s 			page 9


 403:Generated_Source\PSoC5/CapSense_1.c ****             CapSense_1_VdacRefCH1_SetValue(CapSense_1_VdacRefCH1_DEFAULT_DATA);
 404:Generated_Source\PSoC5/CapSense_1.c ****         #endif  /* (CapSense_1_DESIGN_TYPE == CapSense_1_TWO_CHANNELS_DESIGN) */
 405:Generated_Source\PSoC5/CapSense_1.c ****     #else
 406:Generated_Source\PSoC5/CapSense_1.c ****         /* Enable CapSense Buf */
 407:Generated_Source\PSoC5/CapSense_1.c ****         CapSense_1_BufCH0_STBY_PWRMGR_REG |= CapSense_1_BufCH0_STBY_PWR_EN;
  55              		.loc 1 407 0
  56 001e 0F4A     		ldr	r2, .L3+4
  57 0020 1378     		ldrb	r3, [r2]	@ zero_extendqisi2
  58 0022 43F02003 		orr	r3, r3, #32
  59 0026 1370     		strb	r3, [r2]
 408:Generated_Source\PSoC5/CapSense_1.c ****         CapSense_1_BufCH0_ACT_PWRMGR_REG  |= CapSense_1_BufCH0_ACT_PWR_EN;
  60              		.loc 1 408 0
  61 0028 103A     		subs	r2, r2, #16
  62 002a 1378     		ldrb	r3, [r2]	@ zero_extendqisi2
  63 002c 43F02003 		orr	r3, r3, #32
  64 0030 1370     		strb	r3, [r2]
 409:Generated_Source\PSoC5/CapSense_1.c ****         
 410:Generated_Source\PSoC5/CapSense_1.c ****         #if (CapSense_1_DESIGN_TYPE == CapSense_1_TWO_CHANNELS_DESIGN)
 411:Generated_Source\PSoC5/CapSense_1.c ****             CapSense_1_BufCH1_STBY_PWRMGR_REG |= CapSense_1_BufCH1_STBY_PWR_EN;
 412:Generated_Source\PSoC5/CapSense_1.c ****             CapSense_1_BufCH1_ACT_PWRMGR_REG  |= CapSense_1_BufCH1_ACT_PWR_EN;
 413:Generated_Source\PSoC5/CapSense_1.c ****         #endif  /* (CapSense_1_DESIGN_TYPE == CapSense_1_TWO_CHANNELS_DESIGN) */
 414:Generated_Source\PSoC5/CapSense_1.c ****     #endif  /* (CapSense_1_VREF_VDAC == CapSense_1_VREF_OPTIONS) */
 415:Generated_Source\PSoC5/CapSense_1.c ****     
 416:Generated_Source\PSoC5/CapSense_1.c ****     /* Set reference on AMux Bus */
 417:Generated_Source\PSoC5/CapSense_1.c ****     #if (CapSense_1_VREF_OPTIONS == CapSense_1_VREF_VDAC)
 418:Generated_Source\PSoC5/CapSense_1.c ****         /* Connect Vdac to AMux Bus */
 419:Generated_Source\PSoC5/CapSense_1.c ****         CapSense_1_AMuxCH0_Connect(CapSense_1_AMuxCH0_VREF_CHANNEL);
 420:Generated_Source\PSoC5/CapSense_1.c ****         #if (CapSense_1_DESIGN_TYPE == CapSense_1_TWO_CHANNELS_DESIGN)
 421:Generated_Source\PSoC5/CapSense_1.c ****             CapSense_1_AMuxCH1_Connect(CapSense_1_AMuxCH1_VREF_CHANNEL);
 422:Generated_Source\PSoC5/CapSense_1.c ****         #endif  /* (CapSense_1_DESIGN_TYPE == CapSense_1_TWO_CHANNELS_DESIGN) */
 423:Generated_Source\PSoC5/CapSense_1.c ****         
 424:Generated_Source\PSoC5/CapSense_1.c ****     #else
 425:Generated_Source\PSoC5/CapSense_1.c ****         /* Enable CapSense Buf */
 426:Generated_Source\PSoC5/CapSense_1.c ****         CapSense_1_BufCH0_CAPS_CFG0_REG |= CapSense_1_CSBUF_ENABLE;
  65              		.loc 1 426 0
  66 0032 02F5A652 		add	r2, r2, #5312
  67 0036 0732     		adds	r2, r2, #7
  68 0038 1378     		ldrb	r3, [r2]	@ zero_extendqisi2
  69 003a 43F00103 		orr	r3, r3, #1
  70 003e 1370     		strb	r3, [r2]
 427:Generated_Source\PSoC5/CapSense_1.c ****         
 428:Generated_Source\PSoC5/CapSense_1.c ****         #if (CapSense_1_DESIGN_TYPE == CapSense_1_TWO_CHANNELS_DESIGN)
 429:Generated_Source\PSoC5/CapSense_1.c ****             CapSense_1_BufCH1_CAPS_CFG0_REG |= CapSense_1_CSBUF_ENABLE;
 430:Generated_Source\PSoC5/CapSense_1.c ****         #endif  /* (CapSense_1_DESIGN_TYPE == CapSense_1_TWO_CHANNELS_DESIGN) */
 431:Generated_Source\PSoC5/CapSense_1.c ****     #endif  /* (CapSense_1_VREF_VDAC == CapSense_1_VREF_OPTIONS)*/
 432:Generated_Source\PSoC5/CapSense_1.c ****     
 433:Generated_Source\PSoC5/CapSense_1.c ****     CyExitCriticalSection(enableInterrupts);
  71              		.loc 1 433 0
  72 0040 2046     		mov	r0, r4
  73 0042 FFF7FEFF 		bl	CyExitCriticalSection
  74              	.LVL5:
 434:Generated_Source\PSoC5/CapSense_1.c ****     
 435:Generated_Source\PSoC5/CapSense_1.c ****     /* Enable interrupt */
 436:Generated_Source\PSoC5/CapSense_1.c ****     CyIntEnable(CapSense_1_IsrCH0_ISR_NUMBER);
  75              		.loc 1 436 0
  76 0046 0122     		movs	r2, #1
  77 0048 054B     		ldr	r3, .L3+8
ARM GAS  C:\Users\ash750\AppData\Local\Temp\ccm8BDlp.s 			page 10


  78 004a 1A60     		str	r2, [r3]
 437:Generated_Source\PSoC5/CapSense_1.c ****     #if (CapSense_1_DESIGN_TYPE == CapSense_1_TWO_CHANNELS_DESIGN) 
 438:Generated_Source\PSoC5/CapSense_1.c ****         CyIntEnable(CapSense_1_IsrCH1_ISR_NUMBER);
 439:Generated_Source\PSoC5/CapSense_1.c ****     #endif  /* CapSense_1_DESIGN_TYPE */
 440:Generated_Source\PSoC5/CapSense_1.c ****     
 441:Generated_Source\PSoC5/CapSense_1.c ****     /* Set CapSense Enable state */
 442:Generated_Source\PSoC5/CapSense_1.c ****     CapSense_1_CONTROL_REG |= CapSense_1_CTRL_CAPSENSE_EN;
  79              		.loc 1 442 0
  80 004c 054A     		ldr	r2, .L3+12
  81 004e 1378     		ldrb	r3, [r2]	@ zero_extendqisi2
  82 0050 43F08003 		orr	r3, r3, #128
  83 0054 1370     		strb	r3, [r2]
  84 0056 10BD     		pop	{r4, pc}
  85              	.LVL6:
  86              	.L4:
  87              		.align	2
  88              	.L3:
  89 0058 94640040 		.word	1073767572
  90 005c BB430040 		.word	1073759163
  91 0060 00E100E0 		.word	-536813312
  92 0064 76640040 		.word	1073767542
  93              		.cfi_endproc
  94              	.LFE1:
  95              		.size	CapSense_1_Enable, .-CapSense_1_Enable
  96              		.section	.text.CapSense_1_FindNextSensor,"ax",%progbits
  97              		.align	2
  98              		.global	CapSense_1_FindNextSensor
  99              		.thumb
 100              		.thumb_func
 101              		.type	CapSense_1_FindNextSensor, %function
 102              	CapSense_1_FindNextSensor:
 103              	.LFB4:
 443:Generated_Source\PSoC5/CapSense_1.c **** }
 444:Generated_Source\PSoC5/CapSense_1.c **** 
 445:Generated_Source\PSoC5/CapSense_1.c **** 
 446:Generated_Source\PSoC5/CapSense_1.c **** /*******************************************************************************
 447:Generated_Source\PSoC5/CapSense_1.c **** * Function Name: CapSense_1_Start
 448:Generated_Source\PSoC5/CapSense_1.c **** ********************************************************************************
 449:Generated_Source\PSoC5/CapSense_1.c **** *
 450:Generated_Source\PSoC5/CapSense_1.c **** * Summary:
 451:Generated_Source\PSoC5/CapSense_1.c **** *  Initializes registers and starts the CSD method of CapSense component. Reset 
 452:Generated_Source\PSoC5/CapSense_1.c **** *  all sensors to an inactive state. Enables interrupts for sensors scanning.
 453:Generated_Source\PSoC5/CapSense_1.c **** *  When Auto Tuning (SmartSense) mode is selected the tuning procedure is 
 454:Generated_Source\PSoC5/CapSense_1.c **** *  applied for all sensors.
 455:Generated_Source\PSoC5/CapSense_1.c **** *
 456:Generated_Source\PSoC5/CapSense_1.c **** * Parameters:
 457:Generated_Source\PSoC5/CapSense_1.c **** *  None
 458:Generated_Source\PSoC5/CapSense_1.c **** *
 459:Generated_Source\PSoC5/CapSense_1.c **** * Return:
 460:Generated_Source\PSoC5/CapSense_1.c **** *  None
 461:Generated_Source\PSoC5/CapSense_1.c **** *
 462:Generated_Source\PSoC5/CapSense_1.c **** * Global Variables:
 463:Generated_Source\PSoC5/CapSense_1.c **** *  CapSense_1_initVar - used to check initial configuration, modified on 
 464:Generated_Source\PSoC5/CapSense_1.c **** *  first function call.
 465:Generated_Source\PSoC5/CapSense_1.c **** *  CapSense_1_lowLevelTuningDone - used to notify the Tuner GUI that 
 466:Generated_Source\PSoC5/CapSense_1.c **** *  tuning of scanning parameters are done.
 467:Generated_Source\PSoC5/CapSense_1.c **** *
ARM GAS  C:\Users\ash750\AppData\Local\Temp\ccm8BDlp.s 			page 11


 468:Generated_Source\PSoC5/CapSense_1.c **** * Reentrant:
 469:Generated_Source\PSoC5/CapSense_1.c **** *  No
 470:Generated_Source\PSoC5/CapSense_1.c **** *
 471:Generated_Source\PSoC5/CapSense_1.c **** * Note:
 472:Generated_Source\PSoC5/CapSense_1.c **** *  All widgets are enabled by default except proximity widgets. Proximity widgets 
 473:Generated_Source\PSoC5/CapSense_1.c **** *  must be manually enabled as their long scan time is incompatible 
 474:Generated_Source\PSoC5/CapSense_1.c **** *  with the fast response required of other widget types. 
 475:Generated_Source\PSoC5/CapSense_1.c **** *
 476:Generated_Source\PSoC5/CapSense_1.c **** *******************************************************************************/
 477:Generated_Source\PSoC5/CapSense_1.c **** void CapSense_1_Start(void)  
 478:Generated_Source\PSoC5/CapSense_1.c **** {
 479:Generated_Source\PSoC5/CapSense_1.c ****     if (CapSense_1_initVar == 0u)
 480:Generated_Source\PSoC5/CapSense_1.c ****     {
 481:Generated_Source\PSoC5/CapSense_1.c ****         CapSense_1_Init();
 482:Generated_Source\PSoC5/CapSense_1.c ****         CapSense_1_initVar = 1u;
 483:Generated_Source\PSoC5/CapSense_1.c ****     }
 484:Generated_Source\PSoC5/CapSense_1.c ****     CapSense_1_Enable();
 485:Generated_Source\PSoC5/CapSense_1.c ****     
 486:Generated_Source\PSoC5/CapSense_1.c ****     /* AutoTunning start */
 487:Generated_Source\PSoC5/CapSense_1.c ****     #if (CapSense_1_TUNING_METHOD == CapSense_1_AUTO_TUNING)
 488:Generated_Source\PSoC5/CapSense_1.c ****         /* AutoTune by sensor or pair of sensor basis */
 489:Generated_Source\PSoC5/CapSense_1.c ****         CapSense_1_AutoTune();
 490:Generated_Source\PSoC5/CapSense_1.c ****         CapSense_1_lowLevelTuningDone = 1u;
 491:Generated_Source\PSoC5/CapSense_1.c ****     #endif /* (CapSense_1_TUNING_METHOD == CapSense_1_AUTO_TUNING) */
 492:Generated_Source\PSoC5/CapSense_1.c **** }
 493:Generated_Source\PSoC5/CapSense_1.c **** 
 494:Generated_Source\PSoC5/CapSense_1.c **** 
 495:Generated_Source\PSoC5/CapSense_1.c **** /*******************************************************************************
 496:Generated_Source\PSoC5/CapSense_1.c **** * Function Name: CapSense_1_Stop
 497:Generated_Source\PSoC5/CapSense_1.c **** ********************************************************************************
 498:Generated_Source\PSoC5/CapSense_1.c **** *
 499:Generated_Source\PSoC5/CapSense_1.c **** * Summary:
 500:Generated_Source\PSoC5/CapSense_1.c **** *  Stops the sensors scanner, disables internal interrupts, and resets all 
 501:Generated_Source\PSoC5/CapSense_1.c **** *  sensors to an inactive state. Disables Active mode power template bits for 
 502:Generated_Source\PSoC5/CapSense_1.c **** *  number of component used within CapSense.
 503:Generated_Source\PSoC5/CapSense_1.c **** *
 504:Generated_Source\PSoC5/CapSense_1.c **** * Parameters:
 505:Generated_Source\PSoC5/CapSense_1.c **** *  None
 506:Generated_Source\PSoC5/CapSense_1.c **** *
 507:Generated_Source\PSoC5/CapSense_1.c **** * Return:
 508:Generated_Source\PSoC5/CapSense_1.c **** *  None
 509:Generated_Source\PSoC5/CapSense_1.c **** *
 510:Generated_Source\PSoC5/CapSense_1.c **** * Side Effects:
 511:Generated_Source\PSoC5/CapSense_1.c **** *  This function should be called after scans will be completed.
 512:Generated_Source\PSoC5/CapSense_1.c **** *
 513:Generated_Source\PSoC5/CapSense_1.c **** *******************************************************************************/
 514:Generated_Source\PSoC5/CapSense_1.c **** void CapSense_1_Stop(void) 
 515:Generated_Source\PSoC5/CapSense_1.c **** {
 516:Generated_Source\PSoC5/CapSense_1.c ****     /* Stop Capsensing */
 517:Generated_Source\PSoC5/CapSense_1.c ****     CapSense_1_CONTROL_REG &= (uint8)(~CapSense_1_CTRL_START);
 518:Generated_Source\PSoC5/CapSense_1.c ****     
 519:Generated_Source\PSoC5/CapSense_1.c ****     /* Disable interrupt */
 520:Generated_Source\PSoC5/CapSense_1.c ****     CyIntDisable(CapSense_1_IsrCH0_ISR_NUMBER);
 521:Generated_Source\PSoC5/CapSense_1.c ****     #if (CapSense_1_DESIGN_TYPE == CapSense_1_TWO_CHANNELS_DESIGN) 
 522:Generated_Source\PSoC5/CapSense_1.c ****         CyIntDisable(CapSense_1_IsrCH1_ISR_NUMBER);
 523:Generated_Source\PSoC5/CapSense_1.c ****     #endif  /* CapSense_1_DESIGN_TYPE */
 524:Generated_Source\PSoC5/CapSense_1.c ****     
ARM GAS  C:\Users\ash750\AppData\Local\Temp\ccm8BDlp.s 			page 12


 525:Generated_Source\PSoC5/CapSense_1.c ****     /* Clear all sensors */
 526:Generated_Source\PSoC5/CapSense_1.c ****     CapSense_1_ClearSensors();
 527:Generated_Source\PSoC5/CapSense_1.c ****     
 528:Generated_Source\PSoC5/CapSense_1.c ****     /* Disable Prescaler */
 529:Generated_Source\PSoC5/CapSense_1.c ****     #if (CapSense_1_PRESCALER_OPTIONS == CapSense_1_PRESCALER_UDB)
 530:Generated_Source\PSoC5/CapSense_1.c ****         /* Do nothing  for UDB */
 531:Generated_Source\PSoC5/CapSense_1.c ****     #elif (CapSense_1_PRESCALER_OPTIONS == CapSense_1_PRESCALER_FF)        
 532:Generated_Source\PSoC5/CapSense_1.c ****         CapSense_1_PRESCALER_ACT_PWRMGR_REG  &= ~CapSense_1_PRESCALER_ACT_PWR_EN;
 533:Generated_Source\PSoC5/CapSense_1.c ****         CapSense_1_PRESCALER_STBY_PWRMGR_REG &= ~CapSense_1_PRESCALER_STBY_PWR_EN;
 534:Generated_Source\PSoC5/CapSense_1.c ****         
 535:Generated_Source\PSoC5/CapSense_1.c ****     #else
 536:Generated_Source\PSoC5/CapSense_1.c ****         /* Do nothing = config without prescaler */
 537:Generated_Source\PSoC5/CapSense_1.c ****     #endif  /* (CapSense_1_PRESCALER_OPTIONS == CapSense_1_PRESCALER_UDB) */
 538:Generated_Source\PSoC5/CapSense_1.c ****     
 539:Generated_Source\PSoC5/CapSense_1.c ****     /* Disable ScanSpeed */
 540:Generated_Source\PSoC5/CapSense_1.c ****     CapSense_1_SCANSPEED_AUX_CONTROL_REG &= (uint8)(~CapSense_1_SCANSPEED_CTRL_ENABLE);
 541:Generated_Source\PSoC5/CapSense_1.c ****     
 542:Generated_Source\PSoC5/CapSense_1.c ****     /* Disable Measure CH0 */
 543:Generated_Source\PSoC5/CapSense_1.c ****     #if (CapSense_1_IMPLEMENTATION_CH0 == CapSense_1_MEASURE_IMPLEMENTATION_FF)
 544:Generated_Source\PSoC5/CapSense_1.c ****         /* Window PWM */
 545:Generated_Source\PSoC5/CapSense_1.c ****         CapSense_1_PWM_CH0_ACT_PWRMGR_REG  &= ~CapSense_1_PWM_CH0_ACT_PWR_EN;
 546:Generated_Source\PSoC5/CapSense_1.c ****         CapSense_1_PWM_CH0_STBY_PWRMGR_REG &= ~CapSense_1_PWM_CH0_STBY_PWR_EN;
 547:Generated_Source\PSoC5/CapSense_1.c **** 
 548:Generated_Source\PSoC5/CapSense_1.c ****         /* Raw Counter */
 549:Generated_Source\PSoC5/CapSense_1.c ****         CapSense_1_RAW_CH0_ACT_PWRMGR_REG  &= ~CapSense_1_RAW_CH0_ACT_PWR_EN;
 550:Generated_Source\PSoC5/CapSense_1.c ****         CapSense_1_RAW_CH0_STBY_PWRMGR_REG &= ~CapSense_1_RAW_CH0_STBY_PWR_EN;
 551:Generated_Source\PSoC5/CapSense_1.c **** 
 552:Generated_Source\PSoC5/CapSense_1.c ****     #else
 553:Generated_Source\PSoC5/CapSense_1.c ****         /* Window PWM -  Do nothing */
 554:Generated_Source\PSoC5/CapSense_1.c ****         /* Raw Counter - Do nothing */
 555:Generated_Source\PSoC5/CapSense_1.c ****         
 556:Generated_Source\PSoC5/CapSense_1.c ****     #endif  /* (CapSense_1_IMPLEMENTATION_CH0 == CapSense_1_MEASURE_IMPLEMENTATION_FF) */ 
 557:Generated_Source\PSoC5/CapSense_1.c ****     
 558:Generated_Source\PSoC5/CapSense_1.c ****     /* Disable Measure CH1 */
 559:Generated_Source\PSoC5/CapSense_1.c ****     #if (CapSense_1_DESIGN_TYPE == CapSense_1_TWO_CHANNELS_DESIGN)
 560:Generated_Source\PSoC5/CapSense_1.c ****         #if (CapSense_1_IMPLEMENTATION_CH1 == CapSense_1_MEASURE_IMPLEMENTATION_FF)
 561:Generated_Source\PSoC5/CapSense_1.c ****             /* Window PWM */
 562:Generated_Source\PSoC5/CapSense_1.c ****             CapSense_1_PWM_CH1_ACT_PWRMGR_REG  &= ~CapSense_1_PWM_CH1_ACT_PWR_EN;
 563:Generated_Source\PSoC5/CapSense_1.c ****             CapSense_1_PWM_CH1_STBY_PWRMGR_REG &= ~CapSense_1_PWM_CH1_STBY_PWR_EN;
 564:Generated_Source\PSoC5/CapSense_1.c ****     
 565:Generated_Source\PSoC5/CapSense_1.c ****             /* Raw Counter */
 566:Generated_Source\PSoC5/CapSense_1.c ****             CapSense_1_RAW_CH1_ACT_PWRMGR_REG  &= ~CapSense_1_RAW_CH1_ACT_PWR_EN;
 567:Generated_Source\PSoC5/CapSense_1.c ****             CapSense_1_RAW_CH1_STBY_PWRMGR_REG &= ~CapSense_1_RAW_CH1_STBY_PWR_EN;
 568:Generated_Source\PSoC5/CapSense_1.c ****            
 569:Generated_Source\PSoC5/CapSense_1.c ****         #else
 570:Generated_Source\PSoC5/CapSense_1.c ****         /* Window PWM -  Do nothing */
 571:Generated_Source\PSoC5/CapSense_1.c ****         /* Raw Counter - Do nothing */
 572:Generated_Source\PSoC5/CapSense_1.c ****         
 573:Generated_Source\PSoC5/CapSense_1.c ****         #endif  /* (CapSense_1_IMPLEMENTATION_CH1 == CapSense_1_MEASURE_IMPLEMENTATION_FF) */
 574:Generated_Source\PSoC5/CapSense_1.c ****     
 575:Generated_Source\PSoC5/CapSense_1.c ****     #endif  /* (CapSense_1_DESIGN_TYPE == TWO_CHANNELS_DESIGN)*/
 576:Generated_Source\PSoC5/CapSense_1.c ****     
 577:Generated_Source\PSoC5/CapSense_1.c ****     /* Disable the Clock */
 578:Generated_Source\PSoC5/CapSense_1.c ****     #if (CapSense_1_CLOCK_SOURCE == CapSense_1_INTERNAL_CLOCK)
 579:Generated_Source\PSoC5/CapSense_1.c ****        CapSense_1_IntClock_Stop();
 580:Generated_Source\PSoC5/CapSense_1.c ****     #endif  /* CapSense_1_CLOCK_SOURCE */
 581:Generated_Source\PSoC5/CapSense_1.c ****     
ARM GAS  C:\Users\ash750\AppData\Local\Temp\ccm8BDlp.s 			page 13


 582:Generated_Source\PSoC5/CapSense_1.c ****     /* Disable power from Cmp and Idac */
 583:Generated_Source\PSoC5/CapSense_1.c ****     CapSense_1_CompCH0_Stop();
 584:Generated_Source\PSoC5/CapSense_1.c ****     #if (CapSense_1_CURRENT_SOURCE)
 585:Generated_Source\PSoC5/CapSense_1.c ****         CapSense_1_IdacCH0_Stop();
 586:Generated_Source\PSoC5/CapSense_1.c ****     #endif  /* CapSense_1_CURRENT_SOURCE */
 587:Generated_Source\PSoC5/CapSense_1.c ****     
 588:Generated_Source\PSoC5/CapSense_1.c ****     #if (CapSense_1_DESIGN_TYPE == CapSense_1_TWO_CHANNELS_DESIGN) 
 589:Generated_Source\PSoC5/CapSense_1.c ****         CapSense_1_CompCH1_Stop();
 590:Generated_Source\PSoC5/CapSense_1.c ****         #if (CapSense_1_CURRENT_SOURCE)
 591:Generated_Source\PSoC5/CapSense_1.c ****             CapSense_1_IdacCH1_Stop();
 592:Generated_Source\PSoC5/CapSense_1.c ****         #endif  /* CapSense_1_CURRENT_SOURCE */
 593:Generated_Source\PSoC5/CapSense_1.c ****     #endif  /* CapSense_1_DESIGN_TYPE */    
 594:Generated_Source\PSoC5/CapSense_1.c ****     
 595:Generated_Source\PSoC5/CapSense_1.c ****     /* Disable Vref if as VDAC */
 596:Generated_Source\PSoC5/CapSense_1.c ****     #if (CapSense_1_VREF_OPTIONS == CapSense_1_VREF_VDAC)
 597:Generated_Source\PSoC5/CapSense_1.c ****         CapSense_1_VdacRefCH0_Stop();
 598:Generated_Source\PSoC5/CapSense_1.c ****         #if (CapSense_1_DESIGN_TYPE == CapSense_1_TWO_CHANNELS_DESIGN)
 599:Generated_Source\PSoC5/CapSense_1.c ****             CapSense_1_VdacRefCH1_Stop();
 600:Generated_Source\PSoC5/CapSense_1.c ****         #endif  /* CapSense_1_DESIGN_TYPE */
 601:Generated_Source\PSoC5/CapSense_1.c ****     #endif  /* CapSense_1_VREF_OPTIONS */
 602:Generated_Source\PSoC5/CapSense_1.c **** 
 603:Generated_Source\PSoC5/CapSense_1.c ****     #if (CapSense_1_VREF_VDAC == CapSense_1_VREF_OPTIONS)
 604:Generated_Source\PSoC5/CapSense_1.c ****         /* The Idac turn off before */
 605:Generated_Source\PSoC5/CapSense_1.c ****     #else
 606:Generated_Source\PSoC5/CapSense_1.c ****         /* Enable CapSense Buf */
 607:Generated_Source\PSoC5/CapSense_1.c ****         CapSense_1_BufCH0_CAPS_CFG0_REG &= (uint8)(~CapSense_1_CSBUF_ENABLE);
 608:Generated_Source\PSoC5/CapSense_1.c ****         CapSense_1_BufCH0_ACT_PWRMGR_REG &= (uint8)(~CapSense_1_BufCH0_ACT_PWR_EN);
 609:Generated_Source\PSoC5/CapSense_1.c ****         CapSense_1_BufCH0_STBY_PWRMGR_REG &= (uint8)(~CapSense_1_BufCH0_STBY_PWR_EN);
 610:Generated_Source\PSoC5/CapSense_1.c ****         
 611:Generated_Source\PSoC5/CapSense_1.c ****         #if (CapSense_1_DESIGN_TYPE == CapSense_1_TWO_CHANNELS_DESIGN)
 612:Generated_Source\PSoC5/CapSense_1.c ****             CapSense_1_BufCH1_CAPS_CFG0_REG &= (uint8)(~CapSense_1_CSBUF_ENABLE);
 613:Generated_Source\PSoC5/CapSense_1.c ****             CapSense_1_BufCH1_ACT_PWRMGR_REG &= (uint8)(~CapSense_1_BufCH1_ACT_PWR_EN);
 614:Generated_Source\PSoC5/CapSense_1.c ****             CapSense_1_BufCH1_STBY_PWRMGR_REG &= (uint8)(~CapSense_1_BufCH1_STBY_PWR_EN);
 615:Generated_Source\PSoC5/CapSense_1.c ****         #endif  /*(CapSense_1_DESIGN_TYPE == CapSense_1_TWO_CHANNELS_DESIGN) */
 616:Generated_Source\PSoC5/CapSense_1.c ****     #endif  /* (CapSense_1_VREF_VDAC == CapSense_1_VREF_OPTIONS) */
 617:Generated_Source\PSoC5/CapSense_1.c ****     
 618:Generated_Source\PSoC5/CapSense_1.c ****     /* Set CapSense Disable state */
 619:Generated_Source\PSoC5/CapSense_1.c ****     CapSense_1_CONTROL_REG &= (uint8)(~CapSense_1_CTRL_CAPSENSE_EN);
 620:Generated_Source\PSoC5/CapSense_1.c **** }
 621:Generated_Source\PSoC5/CapSense_1.c **** 
 622:Generated_Source\PSoC5/CapSense_1.c **** 
 623:Generated_Source\PSoC5/CapSense_1.c **** #if (CapSense_1_DESIGN_TYPE == CapSense_1_ONE_CHANNEL_DESIGN)
 624:Generated_Source\PSoC5/CapSense_1.c ****     /*******************************************************************************
 625:Generated_Source\PSoC5/CapSense_1.c ****     * Function Name: CapSense_1_FindNextSensor
 626:Generated_Source\PSoC5/CapSense_1.c ****     ********************************************************************************
 627:Generated_Source\PSoC5/CapSense_1.c ****     *
 628:Generated_Source\PSoC5/CapSense_1.c ****     * Summary:
 629:Generated_Source\PSoC5/CapSense_1.c ****     *  Finds next sensor to scan. 
 630:Generated_Source\PSoC5/CapSense_1.c ****     *
 631:Generated_Source\PSoC5/CapSense_1.c ****     * Parameters:
 632:Generated_Source\PSoC5/CapSense_1.c ****     *  snsIndex:  Current index of sensor.
 633:Generated_Source\PSoC5/CapSense_1.c ****     *
 634:Generated_Source\PSoC5/CapSense_1.c ****     * Return:
 635:Generated_Source\PSoC5/CapSense_1.c ****     *  Returns the next sensor index to scan.
 636:Generated_Source\PSoC5/CapSense_1.c ****     *
 637:Generated_Source\PSoC5/CapSense_1.c ****     * Global Variables:
 638:Generated_Source\PSoC5/CapSense_1.c ****     *  CapSense_1_sensorEnableMask[ ] - used to store bit masks of enabled 
ARM GAS  C:\Users\ash750\AppData\Local\Temp\ccm8BDlp.s 			page 14


 639:Generated_Source\PSoC5/CapSense_1.c ****     *  sensors.
 640:Generated_Source\PSoC5/CapSense_1.c ****     *  CapSense_1_sensorEnableMask[0] contains the masked bits for sensors 0
 641:Generated_Source\PSoC5/CapSense_1.c ****     *  through 7 (sensor 0 is bit 0, sensor 1 is bit 1).
 642:Generated_Source\PSoC5/CapSense_1.c ****     *  CapSense_1_sensorEnableMask[1] contains the masked bits for sensors 
 643:Generated_Source\PSoC5/CapSense_1.c ****     *  8 through 15 (if needed), and so on.
 644:Generated_Source\PSoC5/CapSense_1.c ****     *    0 - sensor doesn't scan by CapSense_1_ScanEnabledWidgets().
 645:Generated_Source\PSoC5/CapSense_1.c ****     *    1 - sensor scans by CapSense_1_ScanEnabledWidgets().
 646:Generated_Source\PSoC5/CapSense_1.c ****     *
 647:Generated_Source\PSoC5/CapSense_1.c ****     * Note: 
 648:Generated_Source\PSoC5/CapSense_1.c ****     *  This function has effect on current scanning scanning and should not
 649:Generated_Source\PSoC5/CapSense_1.c ****     *  be used outisde of component.
 650:Generated_Source\PSoC5/CapSense_1.c ****     *
 651:Generated_Source\PSoC5/CapSense_1.c ****     *******************************************************************************/
 652:Generated_Source\PSoC5/CapSense_1.c ****     uint8 CapSense_1_FindNextSensor(uint8 snsIndex) CYREENTRANT
 653:Generated_Source\PSoC5/CapSense_1.c ****     {
 104              		.loc 1 653 0
 105              		.cfi_startproc
 106              		@ args = 0, pretend = 0, frame = 0
 107              		@ frame_needed = 0, uses_anonymous_args = 0
 108              		@ link register save eliminated.
 109              	.LVL7:
 110              	.L7:
 654:Generated_Source\PSoC5/CapSense_1.c ****         uint8 pos;
 655:Generated_Source\PSoC5/CapSense_1.c ****         uint8 enMask;
 656:Generated_Source\PSoC5/CapSense_1.c ****         
 657:Generated_Source\PSoC5/CapSense_1.c ****         /* Check if sensor enabled */
 658:Generated_Source\PSoC5/CapSense_1.c ****         do
 659:Generated_Source\PSoC5/CapSense_1.c ****         {
 660:Generated_Source\PSoC5/CapSense_1.c ****             /* Proceed with the next sensor */
 661:Generated_Source\PSoC5/CapSense_1.c ****             snsIndex++;
 111              		.loc 1 661 0
 112 0000 0130     		adds	r0, r0, #1
 113 0002 C0B2     		uxtb	r0, r0
 114              	.LVL8:
 662:Generated_Source\PSoC5/CapSense_1.c ****             if(snsIndex == CapSense_1_TOTAL_SENSOR_COUNT)
 115              		.loc 1 662 0
 116 0004 0128     		cmp	r0, #1
 117 0006 08D0     		beq	.L6
 663:Generated_Source\PSoC5/CapSense_1.c ****             {
 664:Generated_Source\PSoC5/CapSense_1.c ****                 break;
 665:Generated_Source\PSoC5/CapSense_1.c ****             }
 666:Generated_Source\PSoC5/CapSense_1.c ****             pos = (snsIndex >> 3u);
 118              		.loc 1 666 0
 119 0008 C208     		lsrs	r2, r0, #3
 667:Generated_Source\PSoC5/CapSense_1.c ****             enMask = 0x01u << (snsIndex & 0x07u);
 120              		.loc 1 667 0
 121 000a 00F00701 		and	r1, r0, #7
 122 000e 0123     		movs	r3, #1
 123 0010 8B40     		lsls	r3, r3, r1
 124              	.LVL9:
 668:Generated_Source\PSoC5/CapSense_1.c ****         }    
 669:Generated_Source\PSoC5/CapSense_1.c ****         while((CapSense_1_sensorEnableMask[pos] & enMask) == 0u);
 125              		.loc 1 669 0
 126 0012 0249     		ldr	r1, .L8
 127 0014 8A5C     		ldrb	r2, [r1, r2]	@ zero_extendqisi2
 128 0016 1342     		tst	r3, r2
 129 0018 F2D0     		beq	.L7
ARM GAS  C:\Users\ash750\AppData\Local\Temp\ccm8BDlp.s 			page 15


 130              	.LVL10:
 131              	.L6:
 670:Generated_Source\PSoC5/CapSense_1.c ****         
 671:Generated_Source\PSoC5/CapSense_1.c ****         return snsIndex;
 672:Generated_Source\PSoC5/CapSense_1.c ****     }
 132              		.loc 1 672 0
 133 001a 7047     		bx	lr
 134              	.L9:
 135              		.align	2
 136              	.L8:
 137 001c 00000000 		.word	.LANCHOR0
 138              		.cfi_endproc
 139              	.LFE4:
 140              		.size	CapSense_1_FindNextSensor, .-CapSense_1_FindNextSensor
 141              		.section	.text.CapSense_1_IsBusy,"ax",%progbits
 142              		.align	2
 143              		.global	CapSense_1_IsBusy
 144              		.thumb
 145              		.thumb_func
 146              		.type	CapSense_1_IsBusy, %function
 147              	CapSense_1_IsBusy:
 148              	.LFB8:
 673:Generated_Source\PSoC5/CapSense_1.c ****  #endif  /* CapSense_1_DESIGN_TYPE == CapSense_1_ONE_CHANNEL_DESIGN */
 674:Generated_Source\PSoC5/CapSense_1.c ****  
 675:Generated_Source\PSoC5/CapSense_1.c ****  
 676:Generated_Source\PSoC5/CapSense_1.c **** #if (CapSense_1_DESIGN_TYPE == CapSense_1_TWO_CHANNELS_DESIGN)
 677:Generated_Source\PSoC5/CapSense_1.c ****     /*******************************************************************************
 678:Generated_Source\PSoC5/CapSense_1.c ****     * Function Name: CapSense_1_FindNextPair
 679:Generated_Source\PSoC5/CapSense_1.c ****     ********************************************************************************
 680:Generated_Source\PSoC5/CapSense_1.c ****     *
 681:Generated_Source\PSoC5/CapSense_1.c ****     * Summary:
 682:Generated_Source\PSoC5/CapSense_1.c ****     *  Finds next pair or sensor to scan. Sets condition bits to skip scanning.
 683:Generated_Source\PSoC5/CapSense_1.c ****     *  
 684:Generated_Source\PSoC5/CapSense_1.c ****     * Parameters:
 685:Generated_Source\PSoC5/CapSense_1.c ****     *  snsIndex:  Current index pair of sensors.
 686:Generated_Source\PSoC5/CapSense_1.c ****     *
 687:Generated_Source\PSoC5/CapSense_1.c ****     * Return:
 688:Generated_Source\PSoC5/CapSense_1.c ****     *  Returns the next pair of sensors index to scan.
 689:Generated_Source\PSoC5/CapSense_1.c ****     *
 690:Generated_Source\PSoC5/CapSense_1.c ****     * Global Variables:
 691:Generated_Source\PSoC5/CapSense_1.c ****     *  CapSense_1_sensorEnableMask[ ] - used to store bit masks of enabled 
 692:Generated_Source\PSoC5/CapSense_1.c ****     *  sensors.
 693:Generated_Source\PSoC5/CapSense_1.c ****     *  CapSense_1_sensorEnableMask[0] contains the masked bits for sensors 0
 694:Generated_Source\PSoC5/CapSense_1.c ****     *  through 7 (sensor 0 is bit 0, sensor 1 is bit 1).
 695:Generated_Source\PSoC5/CapSense_1.c ****     *  CapSense_1_sensorEnableMask[1] contains the masked bits for sensors 
 696:Generated_Source\PSoC5/CapSense_1.c ****     *  8 through 15 (if needed), and so on.
 697:Generated_Source\PSoC5/CapSense_1.c ****     *    0 - sensor doesn't scan by CapSense_1_ScanEnabledWidgets().
 698:Generated_Source\PSoC5/CapSense_1.c ****     *    1 - sensor scans by CapSense_1_ScanEnabledWidgets().
 699:Generated_Source\PSoC5/CapSense_1.c ****     *
 700:Generated_Source\PSoC5/CapSense_1.c ****     * Note: 
 701:Generated_Source\PSoC5/CapSense_1.c ****     *  This function has effect on control signals set for scanning and should not
 702:Generated_Source\PSoC5/CapSense_1.c ****     *  be used outisde of component.
 703:Generated_Source\PSoC5/CapSense_1.c ****     *
 704:Generated_Source\PSoC5/CapSense_1.c ****     *******************************************************************************/
 705:Generated_Source\PSoC5/CapSense_1.c ****     uint8 CapSense_1_FindNextPair(uint8 snsIndex) CYREENTRANT
 706:Generated_Source\PSoC5/CapSense_1.c ****     {
 707:Generated_Source\PSoC5/CapSense_1.c ****         uint8 posCh;
ARM GAS  C:\Users\ash750\AppData\Local\Temp\ccm8BDlp.s 			page 16


 708:Generated_Source\PSoC5/CapSense_1.c ****         uint8 enMaskCh;
 709:Generated_Source\PSoC5/CapSense_1.c ****         uint8 newRegValue;
 710:Generated_Source\PSoC5/CapSense_1.c ****         uint8 indexCh0 = snsIndex;
 711:Generated_Source\PSoC5/CapSense_1.c ****         uint8 indexCh1 = snsIndex + CapSense_1_TOTAL_SENSOR_COUNT__CH0;
 712:Generated_Source\PSoC5/CapSense_1.c ****         
 713:Generated_Source\PSoC5/CapSense_1.c ****         /* Find enabled sensor on channel 0 */
 714:Generated_Source\PSoC5/CapSense_1.c ****         do
 715:Generated_Source\PSoC5/CapSense_1.c ****         {
 716:Generated_Source\PSoC5/CapSense_1.c ****             /* Procced the scanning */
 717:Generated_Source\PSoC5/CapSense_1.c ****             indexCh0++;
 718:Generated_Source\PSoC5/CapSense_1.c ****             if (indexCh0 >= CapSense_1_TOTAL_SENSOR_COUNT__CH0)
 719:Generated_Source\PSoC5/CapSense_1.c ****             {
 720:Generated_Source\PSoC5/CapSense_1.c ****                 /* Lets hadle now all from CH1 */
 721:Generated_Source\PSoC5/CapSense_1.c ****                 indexCh0 = CapSense_1_END_OF_SCAN__CH0;
 722:Generated_Source\PSoC5/CapSense_1.c ****                 break;
 723:Generated_Source\PSoC5/CapSense_1.c ****             }
 724:Generated_Source\PSoC5/CapSense_1.c ****             
 725:Generated_Source\PSoC5/CapSense_1.c ****             posCh = (indexCh0 >> 3u);
 726:Generated_Source\PSoC5/CapSense_1.c ****             enMaskCh = 0x01u << (indexCh0 & 0x07u);
 727:Generated_Source\PSoC5/CapSense_1.c ****         }
 728:Generated_Source\PSoC5/CapSense_1.c ****         while((CapSense_1_sensorEnableMask[posCh] & enMaskCh) == 0u);
 729:Generated_Source\PSoC5/CapSense_1.c ****         
 730:Generated_Source\PSoC5/CapSense_1.c ****         /* Find enabled sensor on channel 1 */
 731:Generated_Source\PSoC5/CapSense_1.c ****         do
 732:Generated_Source\PSoC5/CapSense_1.c ****         {
 733:Generated_Source\PSoC5/CapSense_1.c ****             /* Procced the scanning */
 734:Generated_Source\PSoC5/CapSense_1.c ****             indexCh1++;        
 735:Generated_Source\PSoC5/CapSense_1.c ****             if (indexCh1 >= CapSense_1_TOTAL_SENSOR_COUNT)
 736:Generated_Source\PSoC5/CapSense_1.c ****             {
 737:Generated_Source\PSoC5/CapSense_1.c ****                 /* Lets hadle now all from CH0 */
 738:Generated_Source\PSoC5/CapSense_1.c ****                 indexCh1 = CapSense_1_END_OF_SCAN__CH1;
 739:Generated_Source\PSoC5/CapSense_1.c ****                 break;
 740:Generated_Source\PSoC5/CapSense_1.c ****             }
 741:Generated_Source\PSoC5/CapSense_1.c ****             
 742:Generated_Source\PSoC5/CapSense_1.c ****             posCh = (indexCh1 >> 3u);
 743:Generated_Source\PSoC5/CapSense_1.c ****             enMaskCh = 0x01u << (indexCh1 & 0x07u);
 744:Generated_Source\PSoC5/CapSense_1.c ****         } 
 745:Generated_Source\PSoC5/CapSense_1.c ****         while((CapSense_1_sensorEnableMask[posCh] & enMaskCh) == 0u);
 746:Generated_Source\PSoC5/CapSense_1.c ****         
 747:Generated_Source\PSoC5/CapSense_1.c ****         indexCh1 -= CapSense_1_TOTAL_SENSOR_COUNT__CH0;
 748:Generated_Source\PSoC5/CapSense_1.c ****         
 749:Generated_Source\PSoC5/CapSense_1.c ****         /* Find the pair to scan */
 750:Generated_Source\PSoC5/CapSense_1.c ****         if(indexCh0 == indexCh1)
 751:Generated_Source\PSoC5/CapSense_1.c ****         {
 752:Generated_Source\PSoC5/CapSense_1.c ****             /* Scans TWO Channels */
 753:Generated_Source\PSoC5/CapSense_1.c ****             snsIndex = indexCh0;
 754:Generated_Source\PSoC5/CapSense_1.c ****             
 755:Generated_Source\PSoC5/CapSense_1.c ****             CapSense_1_CONTROL_REG |= (CapSense_1_CTRL_WINDOW_EN__CH0 | 
 756:Generated_Source\PSoC5/CapSense_1.c ****                                              CapSense_1_CTRL_WINDOW_EN__CH1);
 757:Generated_Source\PSoC5/CapSense_1.c ****         }
 758:Generated_Source\PSoC5/CapSense_1.c ****         else if(indexCh0 < indexCh1)
 759:Generated_Source\PSoC5/CapSense_1.c ****         {
 760:Generated_Source\PSoC5/CapSense_1.c ****            /* Scans Channel ONE only */
 761:Generated_Source\PSoC5/CapSense_1.c ****            snsIndex = indexCh0;
 762:Generated_Source\PSoC5/CapSense_1.c ****            
 763:Generated_Source\PSoC5/CapSense_1.c ****             newRegValue = CapSense_1_CONTROL_REG;
 764:Generated_Source\PSoC5/CapSense_1.c ****             newRegValue |= CapSense_1_CTRL_WINDOW_EN__CH0;
ARM GAS  C:\Users\ash750\AppData\Local\Temp\ccm8BDlp.s 			page 17


 765:Generated_Source\PSoC5/CapSense_1.c ****             newRegValue &= ~CapSense_1_CTRL_WINDOW_EN__CH1;
 766:Generated_Source\PSoC5/CapSense_1.c ****             CapSense_1_CONTROL_REG = newRegValue;
 767:Generated_Source\PSoC5/CapSense_1.c ****         }
 768:Generated_Source\PSoC5/CapSense_1.c ****         else
 769:Generated_Source\PSoC5/CapSense_1.c ****         {
 770:Generated_Source\PSoC5/CapSense_1.c ****             /* Scans Channel TWO only */
 771:Generated_Source\PSoC5/CapSense_1.c ****             snsIndex = indexCh1;
 772:Generated_Source\PSoC5/CapSense_1.c ****             
 773:Generated_Source\PSoC5/CapSense_1.c ****             newRegValue = CapSense_1_CONTROL_REG;
 774:Generated_Source\PSoC5/CapSense_1.c ****             newRegValue |= CapSense_1_CTRL_WINDOW_EN__CH1;
 775:Generated_Source\PSoC5/CapSense_1.c ****             newRegValue &= ~CapSense_1_CTRL_WINDOW_EN__CH0;
 776:Generated_Source\PSoC5/CapSense_1.c ****             CapSense_1_CONTROL_REG = newRegValue;
 777:Generated_Source\PSoC5/CapSense_1.c ****         }
 778:Generated_Source\PSoC5/CapSense_1.c ****         
 779:Generated_Source\PSoC5/CapSense_1.c ****         return (snsIndex);
 780:Generated_Source\PSoC5/CapSense_1.c ****     }
 781:Generated_Source\PSoC5/CapSense_1.c **** #endif  /* CapSense_1_DESIGN_TYPE == CapSense_1_TWO_CHANNELS_DESIGN */
 782:Generated_Source\PSoC5/CapSense_1.c **** 
 783:Generated_Source\PSoC5/CapSense_1.c **** 
 784:Generated_Source\PSoC5/CapSense_1.c **** /*******************************************************************************
 785:Generated_Source\PSoC5/CapSense_1.c **** * Function Name: CapSense_1_SetScanSlotSettings
 786:Generated_Source\PSoC5/CapSense_1.c **** ********************************************************************************
 787:Generated_Source\PSoC5/CapSense_1.c **** *
 788:Generated_Source\PSoC5/CapSense_1.c **** * Summary:
 789:Generated_Source\PSoC5/CapSense_1.c **** *  Sets the scan settings of the selected scan slot (sensor or pair of sensors). 
 790:Generated_Source\PSoC5/CapSense_1.c **** *  The scan settings incorporate IDAC value (for IDAC configurations) for every 
 791:Generated_Source\PSoC5/CapSense_1.c **** *  sensor and resolution. The resolution is the same for all sensors within 
 792:Generated_Source\PSoC5/CapSense_1.c **** *  widget.
 793:Generated_Source\PSoC5/CapSense_1.c **** *
 794:Generated_Source\PSoC5/CapSense_1.c **** * Parameters:
 795:Generated_Source\PSoC5/CapSense_1.c **** *  slot:  Scan slot number (sensor or pair of sensors).
 796:Generated_Source\PSoC5/CapSense_1.c **** *
 797:Generated_Source\PSoC5/CapSense_1.c **** * Return:
 798:Generated_Source\PSoC5/CapSense_1.c **** *  None
 799:Generated_Source\PSoC5/CapSense_1.c **** *
 800:Generated_Source\PSoC5/CapSense_1.c **** * Global Variables:
 801:Generated_Source\PSoC5/CapSense_1.c **** *  CapSense_1_idacSettings[] - used to store idac value for every sensor.
 802:Generated_Source\PSoC5/CapSense_1.c **** *  CapSense_1_widgetResolution[] - used to store scan resolution of every 
 803:Generated_Source\PSoC5/CapSense_1.c **** *  widget.
 804:Generated_Source\PSoC5/CapSense_1.c **** *
 805:Generated_Source\PSoC5/CapSense_1.c **** *******************************************************************************/
 806:Generated_Source\PSoC5/CapSense_1.c **** void CapSense_1_SetScanSlotSettings(uint8 slot) CYREENTRANT
 807:Generated_Source\PSoC5/CapSense_1.c **** {
 808:Generated_Source\PSoC5/CapSense_1.c ****     uint8 widget;
 809:Generated_Source\PSoC5/CapSense_1.c ****     
 810:Generated_Source\PSoC5/CapSense_1.c ****     #if (CapSense_1_DESIGN_TYPE == CapSense_1_ONE_CHANNEL_DESIGN)
 811:Generated_Source\PSoC5/CapSense_1.c ****         /* Define widget sensor belongs to */
 812:Generated_Source\PSoC5/CapSense_1.c ****         widget = CapSense_1_widgetNumber[slot];
 813:Generated_Source\PSoC5/CapSense_1.c ****         
 814:Generated_Source\PSoC5/CapSense_1.c ****         /* Set Idac Value */
 815:Generated_Source\PSoC5/CapSense_1.c ****         #if (CapSense_1_CURRENT_SOURCE)
 816:Generated_Source\PSoC5/CapSense_1.c ****             CapSense_1_IdacCH0_SetValue(CapSense_1_idacSettings[slot]);
 817:Generated_Source\PSoC5/CapSense_1.c ****         #endif  /* CapSense_1_CURRENT_SOURCE */
 818:Generated_Source\PSoC5/CapSense_1.c ****         
 819:Generated_Source\PSoC5/CapSense_1.c ****         /* Window PWM */
 820:Generated_Source\PSoC5/CapSense_1.c ****         #if (CapSense_1_IMPLEMENTATION_CH0 == CapSense_1_MEASURE_IMPLEMENTATION_FF)
 821:Generated_Source\PSoC5/CapSense_1.c ****             CY_SET_REG16(CapSense_1_PWM_CH0_PERIOD_PTR,
ARM GAS  C:\Users\ash750\AppData\Local\Temp\ccm8BDlp.s 			page 18


 822:Generated_Source\PSoC5/CapSense_1.c ****                 ((uint16) CapSense_1_widgetResolution[widget] << 8u) | CapSense_1_MEASURE_FULL_RANG
 823:Generated_Source\PSoC5/CapSense_1.c ****         #else
 824:Generated_Source\PSoC5/CapSense_1.c ****             CapSense_1_PWM_CH0_PERIOD_HI_REG = CapSense_1_widgetResolution[widget];
 825:Generated_Source\PSoC5/CapSense_1.c ****         #endif  /* (CapSense_1_IMPLEMENTATION_CH0 == CapSense_1_MEASURE_IMPLEMENTATION_FF) */ 
 826:Generated_Source\PSoC5/CapSense_1.c **** 
 827:Generated_Source\PSoC5/CapSense_1.c ****         #if ( (CapSense_1_MULTIPLE_PRESCALER_ENABLED) || \
 828:Generated_Source\PSoC5/CapSense_1.c ****               (CapSense_1_TUNING_METHOD == CapSense_1_AUTO_TUNING) )
 829:Generated_Source\PSoC5/CapSense_1.c ****             CapSense_1_SetPrescaler(CapSense_1_analogSwitchDivider[slot]);
 830:Generated_Source\PSoC5/CapSense_1.c ****         #elif (CapSense_1_PRESCALER_OPTIONS)
 831:Generated_Source\PSoC5/CapSense_1.c ****             CapSense_1_SetPrescaler(CapSense_1_analogSwitchDivider);
 832:Generated_Source\PSoC5/CapSense_1.c ****         #endif /* ((CapSense_1_MULTIPLE_PRESCALER_ENABLED) || \
 833:Generated_Source\PSoC5/CapSense_1.c ****                *   (CapSense_1_TUNING_METHOD == CapSense_1_AUTO_TUNING))
 834:Generated_Source\PSoC5/CapSense_1.c ****                */
 835:Generated_Source\PSoC5/CapSense_1.c **** 
 836:Generated_Source\PSoC5/CapSense_1.c ****     #else
 837:Generated_Source\PSoC5/CapSense_1.c ****         if(slot < CapSense_1_TOTAL_SENSOR_COUNT__CH0)
 838:Generated_Source\PSoC5/CapSense_1.c ****         {
 839:Generated_Source\PSoC5/CapSense_1.c ****             /* Define widget sensor belongs to */
 840:Generated_Source\PSoC5/CapSense_1.c ****             widget = CapSense_1_widgetNumber[slot];
 841:Generated_Source\PSoC5/CapSense_1.c ****             
 842:Generated_Source\PSoC5/CapSense_1.c ****             /* Set Idac Value */
 843:Generated_Source\PSoC5/CapSense_1.c ****             #if (CapSense_1_CURRENT_SOURCE)
 844:Generated_Source\PSoC5/CapSense_1.c ****                 CapSense_1_IdacCH0_SetValue(CapSense_1_idacSettings[slot]);
 845:Generated_Source\PSoC5/CapSense_1.c ****             #endif  /* CapSense_1_CURRENT_SOURCE */
 846:Generated_Source\PSoC5/CapSense_1.c ****             
 847:Generated_Source\PSoC5/CapSense_1.c ****             /* Set Pwm Resolution */
 848:Generated_Source\PSoC5/CapSense_1.c ****             #if (CapSense_1_IMPLEMENTATION_CH0 == CapSense_1_MEASURE_IMPLEMENTATION_FF)
 849:Generated_Source\PSoC5/CapSense_1.c ****                 CY_SET_REG16(CapSense_1_PWM_CH0_PERIOD_PTR,
 850:Generated_Source\PSoC5/CapSense_1.c ****                   ((uint16) CapSense_1_widgetResolution[widget] << 8u) | CapSense_1_MEASURE_FULL_RA
 851:Generated_Source\PSoC5/CapSense_1.c ****             #else
 852:Generated_Source\PSoC5/CapSense_1.c ****                 CapSense_1_PWM_CH0_PERIOD_HI_REG = CapSense_1_widgetResolution[widget];
 853:Generated_Source\PSoC5/CapSense_1.c ****             #endif  /* (CapSense_1_IMPLEMENTATION_CH0 == CapSense_1_MEASURE_IMPLEMENTATION_FF)*/ 
 854:Generated_Source\PSoC5/CapSense_1.c ****         }
 855:Generated_Source\PSoC5/CapSense_1.c ****         
 856:Generated_Source\PSoC5/CapSense_1.c ****         if(slot < CapSense_1_TOTAL_SENSOR_COUNT__CH1)
 857:Generated_Source\PSoC5/CapSense_1.c ****         {
 858:Generated_Source\PSoC5/CapSense_1.c ****             widget = CapSense_1_widgetNumber[slot+CapSense_1_TOTAL_SENSOR_COUNT__CH0];
 859:Generated_Source\PSoC5/CapSense_1.c ****         
 860:Generated_Source\PSoC5/CapSense_1.c ****             /* Set Idac Value */
 861:Generated_Source\PSoC5/CapSense_1.c ****             #if (CapSense_1_CURRENT_SOURCE)
 862:Generated_Source\PSoC5/CapSense_1.c ****                 CapSense_1_IdacCH1_SetValue(CapSense_1_idacSettings[slot+
 863:Generated_Source\PSoC5/CapSense_1.c ****                                                                              CapSense_1_TOTAL_SENSO
 864:Generated_Source\PSoC5/CapSense_1.c ****             #endif  /* CapSense_1_CURRENT_SOURCE */
 865:Generated_Source\PSoC5/CapSense_1.c ****             
 866:Generated_Source\PSoC5/CapSense_1.c ****             /* Set Pwm Resolution */
 867:Generated_Source\PSoC5/CapSense_1.c ****             #if (CapSense_1_IMPLEMENTATION_CH1 == CapSense_1_MEASURE_IMPLEMENTATION_FF)
 868:Generated_Source\PSoC5/CapSense_1.c ****                 CY_SET_REG16(CapSense_1_PWM_CH1_PERIOD_PTR,
 869:Generated_Source\PSoC5/CapSense_1.c ****                   ((uint16) CapSense_1_widgetResolution[widget] << 8u) | CapSense_1_MEASURE_FULL_RA
 870:Generated_Source\PSoC5/CapSense_1.c ****             #else
 871:Generated_Source\PSoC5/CapSense_1.c ****                 CapSense_1_PWM_CH1_PERIOD_HI_REG = CapSense_1_widgetResolution[widget];
 872:Generated_Source\PSoC5/CapSense_1.c ****             #endif  /* (CapSense_1_IMPLEMENTATION_CH1 == CapSense_1_MEASURE_IMPLEMENTATION_FF)*/ 
 873:Generated_Source\PSoC5/CapSense_1.c ****         }
 874:Generated_Source\PSoC5/CapSense_1.c **** 
 875:Generated_Source\PSoC5/CapSense_1.c ****         #if ( (CapSense_1_MULTIPLE_PRESCALER_ENABLED) || \
 876:Generated_Source\PSoC5/CapSense_1.c ****               (CapSense_1_TUNING_METHOD == CapSense_1_AUTO_TUNING) )
 877:Generated_Source\PSoC5/CapSense_1.c ****             CapSense_1_SetPrescaler(CapSense_1_analogSwitchDivider[slot]);
 878:Generated_Source\PSoC5/CapSense_1.c ****         #elif (CapSense_1_PRESCALER_OPTIONS)
ARM GAS  C:\Users\ash750\AppData\Local\Temp\ccm8BDlp.s 			page 19


 879:Generated_Source\PSoC5/CapSense_1.c ****             CapSense_1_SetPrescaler(CapSense_1_analogSwitchDivider);
 880:Generated_Source\PSoC5/CapSense_1.c ****         #endif /* ((CapSense_1_MULTIPLE_PRESCALER_ENABLED) || \
 881:Generated_Source\PSoC5/CapSense_1.c ****                *   (CapSense_1_TUNING_METHOD == CapSense_1_AUTO_TUNING))
 882:Generated_Source\PSoC5/CapSense_1.c ****                */
 883:Generated_Source\PSoC5/CapSense_1.c **** 
 884:Generated_Source\PSoC5/CapSense_1.c ****     #endif  /* CapSense_1_DESIGN_TYPE */
 885:Generated_Source\PSoC5/CapSense_1.c **** }
 886:Generated_Source\PSoC5/CapSense_1.c **** 
 887:Generated_Source\PSoC5/CapSense_1.c **** 
 888:Generated_Source\PSoC5/CapSense_1.c **** /*******************************************************************************
 889:Generated_Source\PSoC5/CapSense_1.c **** * Function Name: CapSense_1_ScanSensor
 890:Generated_Source\PSoC5/CapSense_1.c **** ********************************************************************************
 891:Generated_Source\PSoC5/CapSense_1.c **** *
 892:Generated_Source\PSoC5/CapSense_1.c **** * Summary:
 893:Generated_Source\PSoC5/CapSense_1.c **** *  Sets scan settings and starts scanning a sensor or pair of combined sensors
 894:Generated_Source\PSoC5/CapSense_1.c **** *  on each channel. If two channels are configured, two sensors may be scanned 
 895:Generated_Source\PSoC5/CapSense_1.c **** *  at the same time. After scanning is complete the isr copies the measured 
 896:Generated_Source\PSoC5/CapSense_1.c **** *  sensor raw data to the global array. Use of the isr ensures this function 
 897:Generated_Source\PSoC5/CapSense_1.c **** *  is non-blocking. Each sensor has a unique number within the sensor array. 
 898:Generated_Source\PSoC5/CapSense_1.c **** *  This number is assigned by the CapSense customizer in sequence.
 899:Generated_Source\PSoC5/CapSense_1.c **** *
 900:Generated_Source\PSoC5/CapSense_1.c **** * Parameters:
 901:Generated_Source\PSoC5/CapSense_1.c **** *  sensor:  Sensor number.
 902:Generated_Source\PSoC5/CapSense_1.c **** *
 903:Generated_Source\PSoC5/CapSense_1.c **** * Return:
 904:Generated_Source\PSoC5/CapSense_1.c **** *  None
 905:Generated_Source\PSoC5/CapSense_1.c **** *
 906:Generated_Source\PSoC5/CapSense_1.c **** * Global Variables:
 907:Generated_Source\PSoC5/CapSense_1.c **** *  CapSense_1_csv - used to provide status and mode of scanning process. 
 908:Generated_Source\PSoC5/CapSense_1.c **** *  Sets busy status(scan in progress) and mode of scan as single scan.
 909:Generated_Source\PSoC5/CapSense_1.c **** *  For two channel design the additional bits are set to define if scan a 
 910:Generated_Source\PSoC5/CapSense_1.c **** *  pair of sensors or single one.
 911:Generated_Source\PSoC5/CapSense_1.c **** *  CapSense_1_sensorIndex - used to store sensor scanning sensor number.
 912:Generated_Source\PSoC5/CapSense_1.c **** *  Sets to provided sensor argument.
 913:Generated_Source\PSoC5/CapSense_1.c **** *
 914:Generated_Source\PSoC5/CapSense_1.c **** * Reentrant:
 915:Generated_Source\PSoC5/CapSense_1.c **** *  No
 916:Generated_Source\PSoC5/CapSense_1.c **** *
 917:Generated_Source\PSoC5/CapSense_1.c **** *******************************************************************************/
 918:Generated_Source\PSoC5/CapSense_1.c **** void CapSense_1_ScanSensor(uint8 sensor)  
 919:Generated_Source\PSoC5/CapSense_1.c **** {
 920:Generated_Source\PSoC5/CapSense_1.c ****     /* Clears status/control variable and set sensorIndex */
 921:Generated_Source\PSoC5/CapSense_1.c ****     CapSense_1_csv = 0u;
 922:Generated_Source\PSoC5/CapSense_1.c ****     CapSense_1_sensorIndex = sensor;
 923:Generated_Source\PSoC5/CapSense_1.c ****     
 924:Generated_Source\PSoC5/CapSense_1.c ****     #if (CapSense_1_DESIGN_TYPE == CapSense_1_ONE_CHANNEL_DESIGN)
 925:Generated_Source\PSoC5/CapSense_1.c ****         /* Start of sensor scan */
 926:Generated_Source\PSoC5/CapSense_1.c ****         CapSense_1_csv = (CapSense_1_SW_STS_BUSY | CapSense_1_SW_CTRL_SINGLE_SCAN);
 927:Generated_Source\PSoC5/CapSense_1.c ****         CapSense_1_PreScan(sensor);
 928:Generated_Source\PSoC5/CapSense_1.c ****         
 929:Generated_Source\PSoC5/CapSense_1.c ****     #else
 930:Generated_Source\PSoC5/CapSense_1.c ****         /* CH0: check end of scan conditions */
 931:Generated_Source\PSoC5/CapSense_1.c ****         if(sensor < CapSense_1_TOTAL_SENSOR_COUNT__CH0)
 932:Generated_Source\PSoC5/CapSense_1.c ****         {
 933:Generated_Source\PSoC5/CapSense_1.c ****             CapSense_1_CONTROL_REG |= CapSense_1_CTRL_WINDOW_EN__CH0;
 934:Generated_Source\PSoC5/CapSense_1.c ****         }
 935:Generated_Source\PSoC5/CapSense_1.c ****         else
ARM GAS  C:\Users\ash750\AppData\Local\Temp\ccm8BDlp.s 			page 20


 936:Generated_Source\PSoC5/CapSense_1.c ****         {
 937:Generated_Source\PSoC5/CapSense_1.c ****             CapSense_1_CONTROL_REG &= ~CapSense_1_CTRL_WINDOW_EN__CH0;
 938:Generated_Source\PSoC5/CapSense_1.c ****         }
 939:Generated_Source\PSoC5/CapSense_1.c ****         
 940:Generated_Source\PSoC5/CapSense_1.c ****         /* CH1: check end of scan conditions */
 941:Generated_Source\PSoC5/CapSense_1.c ****         if(sensor < CapSense_1_TOTAL_SENSOR_COUNT__CH1)
 942:Generated_Source\PSoC5/CapSense_1.c ****         {
 943:Generated_Source\PSoC5/CapSense_1.c ****             CapSense_1_CONTROL_REG |= CapSense_1_CTRL_WINDOW_EN__CH1;
 944:Generated_Source\PSoC5/CapSense_1.c ****         }
 945:Generated_Source\PSoC5/CapSense_1.c ****         else
 946:Generated_Source\PSoC5/CapSense_1.c ****         {
 947:Generated_Source\PSoC5/CapSense_1.c ****             CapSense_1_CONTROL_REG &= ~CapSense_1_CTRL_WINDOW_EN__CH1;
 948:Generated_Source\PSoC5/CapSense_1.c ****         }
 949:Generated_Source\PSoC5/CapSense_1.c ****         
 950:Generated_Source\PSoC5/CapSense_1.c ****         /* Start sensor scan */
 951:Generated_Source\PSoC5/CapSense_1.c ****         if( ((CapSense_1_CONTROL_REG & CapSense_1_CTRL_WINDOW_EN__CH0) != 0u) || 
 952:Generated_Source\PSoC5/CapSense_1.c ****             ((CapSense_1_CONTROL_REG & CapSense_1_CTRL_WINDOW_EN__CH1) != 0u) )
 953:Generated_Source\PSoC5/CapSense_1.c ****         {
 954:Generated_Source\PSoC5/CapSense_1.c ****         
 955:Generated_Source\PSoC5/CapSense_1.c ****             CapSense_1_csv |= (CapSense_1_SW_STS_BUSY | CapSense_1_SW_CTRL_SINGLE_SCAN);
 956:Generated_Source\PSoC5/CapSense_1.c ****             CapSense_1_PreScan(sensor);
 957:Generated_Source\PSoC5/CapSense_1.c ****         }
 958:Generated_Source\PSoC5/CapSense_1.c ****         
 959:Generated_Source\PSoC5/CapSense_1.c ****     #endif  /* CapSense_1_DESIGN_TYPE */
 960:Generated_Source\PSoC5/CapSense_1.c **** }
 961:Generated_Source\PSoC5/CapSense_1.c **** 
 962:Generated_Source\PSoC5/CapSense_1.c **** 
 963:Generated_Source\PSoC5/CapSense_1.c **** /*******************************************************************************
 964:Generated_Source\PSoC5/CapSense_1.c **** * Function Name: CapSense_1_ScanEnableWidgets
 965:Generated_Source\PSoC5/CapSense_1.c **** ********************************************************************************
 966:Generated_Source\PSoC5/CapSense_1.c **** *
 967:Generated_Source\PSoC5/CapSense_1.c **** * Summary:
 968:Generated_Source\PSoC5/CapSense_1.c **** *  Scans all of the enabled widgets. Starts scanning a sensor or pair of sensors 
 969:Generated_Source\PSoC5/CapSense_1.c **** *  within enabled widget. The isr proceeding scanning next sensor or pair till 
 970:Generated_Source\PSoC5/CapSense_1.c **** *  all enabled widgets will be scanned. Use of the isr ensures this function is 
 971:Generated_Source\PSoC5/CapSense_1.c **** *  non-blocking. All widgets are enabled by default except proximity widgets. 
 972:Generated_Source\PSoC5/CapSense_1.c **** *  Proximity widgets must be manually enabled as their long scan time is 
 973:Generated_Source\PSoC5/CapSense_1.c **** *  incompatible with fast response desired of other widget types.
 974:Generated_Source\PSoC5/CapSense_1.c **** *
 975:Generated_Source\PSoC5/CapSense_1.c **** * Parameters:
 976:Generated_Source\PSoC5/CapSense_1.c **** *  None
 977:Generated_Source\PSoC5/CapSense_1.c **** *
 978:Generated_Source\PSoC5/CapSense_1.c **** * Return:
 979:Generated_Source\PSoC5/CapSense_1.c **** *  None
 980:Generated_Source\PSoC5/CapSense_1.c **** *
 981:Generated_Source\PSoC5/CapSense_1.c **** * Global Variables:
 982:Generated_Source\PSoC5/CapSense_1.c **** *  CapSense_1_csv - used to provide status and mode of scanning process. 
 983:Generated_Source\PSoC5/CapSense_1.c **** *  Sets busy status(scan in progress) and clears single scan mode.
 984:Generated_Source\PSoC5/CapSense_1.c **** *  For two channel design the additional bits are set to define if scan a 
 985:Generated_Source\PSoC5/CapSense_1.c **** *  pair of sensors or single one. 
 986:Generated_Source\PSoC5/CapSense_1.c **** *  CapSense_1_sensorIndex - used to store sensor scanning sensor number.
 987:Generated_Source\PSoC5/CapSense_1.c **** *  Sets to 0xFF and provided to function CapSense_1_FindNextSensor or
 988:Generated_Source\PSoC5/CapSense_1.c **** *  CapSense_1_FindNextPair, these functions starts with sensor index
 989:Generated_Source\PSoC5/CapSense_1.c **** *  increment and overflow of uint8 gives desired index 0.
 990:Generated_Source\PSoC5/CapSense_1.c **** *
 991:Generated_Source\PSoC5/CapSense_1.c **** * Reentrant:
 992:Generated_Source\PSoC5/CapSense_1.c **** *  No
ARM GAS  C:\Users\ash750\AppData\Local\Temp\ccm8BDlp.s 			page 21


 993:Generated_Source\PSoC5/CapSense_1.c **** *
 994:Generated_Source\PSoC5/CapSense_1.c **** *******************************************************************************/
 995:Generated_Source\PSoC5/CapSense_1.c **** void CapSense_1_ScanEnabledWidgets(void) 
 996:Generated_Source\PSoC5/CapSense_1.c **** {
 997:Generated_Source\PSoC5/CapSense_1.c ****     /* Clears status/control variable and set sensorIndex */
 998:Generated_Source\PSoC5/CapSense_1.c ****     CapSense_1_csv = 0u;
 999:Generated_Source\PSoC5/CapSense_1.c ****     CapSense_1_sensorIndex = 0xFFu;
1000:Generated_Source\PSoC5/CapSense_1.c ****     
1001:Generated_Source\PSoC5/CapSense_1.c ****     #if (CapSense_1_DESIGN_TYPE == CapSense_1_ONE_CHANNEL_DESIGN)
1002:Generated_Source\PSoC5/CapSense_1.c ****         /* Find next sensor */
1003:Generated_Source\PSoC5/CapSense_1.c ****         CapSense_1_sensorIndex = CapSense_1_FindNextSensor(CapSense_1_sensorIndex);
1004:Generated_Source\PSoC5/CapSense_1.c **** 
1005:Generated_Source\PSoC5/CapSense_1.c ****         /* Check end of scan condition */
1006:Generated_Source\PSoC5/CapSense_1.c ****         if(CapSense_1_sensorIndex < CapSense_1_TOTAL_SENSOR_COUNT)
1007:Generated_Source\PSoC5/CapSense_1.c ****         {
1008:Generated_Source\PSoC5/CapSense_1.c ****             CapSense_1_csv |= CapSense_1_SW_STS_BUSY;
1009:Generated_Source\PSoC5/CapSense_1.c ****             CapSense_1_PreScan(CapSense_1_sensorIndex);
1010:Generated_Source\PSoC5/CapSense_1.c ****         }
1011:Generated_Source\PSoC5/CapSense_1.c ****         
1012:Generated_Source\PSoC5/CapSense_1.c ****     #else
1013:Generated_Source\PSoC5/CapSense_1.c ****         /* Find next sensor and set proper control register */
1014:Generated_Source\PSoC5/CapSense_1.c ****         CapSense_1_sensorIndex = CapSense_1_FindNextPair(CapSense_1_sensorIndex);
1015:Generated_Source\PSoC5/CapSense_1.c ****         
1016:Generated_Source\PSoC5/CapSense_1.c ****         /* Start sensor scan */
1017:Generated_Source\PSoC5/CapSense_1.c ****         if((CapSense_1_sensorIndex < CapSense_1_TOTAL_SENSOR_COUNT__CH0) || 
1018:Generated_Source\PSoC5/CapSense_1.c ****            (CapSense_1_sensorIndex < CapSense_1_TOTAL_SENSOR_COUNT__CH1))
1019:Generated_Source\PSoC5/CapSense_1.c ****         {
1020:Generated_Source\PSoC5/CapSense_1.c ****             CapSense_1_csv |= CapSense_1_SW_STS_BUSY;
1021:Generated_Source\PSoC5/CapSense_1.c ****             CapSense_1_PreScan(CapSense_1_sensorIndex);
1022:Generated_Source\PSoC5/CapSense_1.c ****         }
1023:Generated_Source\PSoC5/CapSense_1.c ****         
1024:Generated_Source\PSoC5/CapSense_1.c ****     #endif  /* CapSense_1_DESIGN_TYPE */
1025:Generated_Source\PSoC5/CapSense_1.c **** }
1026:Generated_Source\PSoC5/CapSense_1.c **** 
1027:Generated_Source\PSoC5/CapSense_1.c **** 
1028:Generated_Source\PSoC5/CapSense_1.c **** /*******************************************************************************
1029:Generated_Source\PSoC5/CapSense_1.c **** * Function Name: CapSense_1_IsBusy
1030:Generated_Source\PSoC5/CapSense_1.c **** ********************************************************************************
1031:Generated_Source\PSoC5/CapSense_1.c **** *
1032:Generated_Source\PSoC5/CapSense_1.c **** * Summary:
1033:Generated_Source\PSoC5/CapSense_1.c **** *  Returns the state of CapSense component. The 1 means that scanning in 
1034:Generated_Source\PSoC5/CapSense_1.c **** *  progress and 0 means that scanning is complete.
1035:Generated_Source\PSoC5/CapSense_1.c **** *
1036:Generated_Source\PSoC5/CapSense_1.c **** * Parameters:
1037:Generated_Source\PSoC5/CapSense_1.c **** *  None
1038:Generated_Source\PSoC5/CapSense_1.c **** *
1039:Generated_Source\PSoC5/CapSense_1.c **** * Return:
1040:Generated_Source\PSoC5/CapSense_1.c **** *  Returns the state of scanning. 1 - scanning in progress, 0 - scanning 
1041:Generated_Source\PSoC5/CapSense_1.c **** *  completed.
1042:Generated_Source\PSoC5/CapSense_1.c **** *
1043:Generated_Source\PSoC5/CapSense_1.c **** * Global Variables:
1044:Generated_Source\PSoC5/CapSense_1.c **** *  CapSense_1_csv - used to provide status and mode of scanning process. 
1045:Generated_Source\PSoC5/CapSense_1.c **** *  Checks the busy status.
1046:Generated_Source\PSoC5/CapSense_1.c **** *
1047:Generated_Source\PSoC5/CapSense_1.c **** *******************************************************************************/
1048:Generated_Source\PSoC5/CapSense_1.c **** uint8 CapSense_1_IsBusy(void) 
1049:Generated_Source\PSoC5/CapSense_1.c **** {
ARM GAS  C:\Users\ash750\AppData\Local\Temp\ccm8BDlp.s 			page 22


 149              		.loc 1 1049 0
 150              		.cfi_startproc
 151              		@ args = 0, pretend = 0, frame = 0
 152              		@ frame_needed = 0, uses_anonymous_args = 0
 153              		@ link register save eliminated.
1050:Generated_Source\PSoC5/CapSense_1.c ****     return ((0u != (CapSense_1_csv & CapSense_1_SW_STS_BUSY)) ? 1u : 0u);
 154              		.loc 1 1050 0
 155 0000 024B     		ldr	r3, .L11
 156 0002 1878     		ldrb	r0, [r3]	@ zero_extendqisi2
1051:Generated_Source\PSoC5/CapSense_1.c **** }
 157              		.loc 1 1051 0
 158 0004 00F00100 		and	r0, r0, #1
 159 0008 7047     		bx	lr
 160              	.L12:
 161 000a 00BF     		.align	2
 162              	.L11:
 163 000c 00000000 		.word	CapSense_1_csv
 164              		.cfi_endproc
 165              	.LFE8:
 166              		.size	CapSense_1_IsBusy, .-CapSense_1_IsBusy
 167              		.section	.text.CapSense_1_ReadSensorRaw,"ax",%progbits
 168              		.align	2
 169              		.global	CapSense_1_ReadSensorRaw
 170              		.thumb
 171              		.thumb_func
 172              		.type	CapSense_1_ReadSensorRaw, %function
 173              	CapSense_1_ReadSensorRaw:
 174              	.LFB9:
1052:Generated_Source\PSoC5/CapSense_1.c **** 
1053:Generated_Source\PSoC5/CapSense_1.c **** 
1054:Generated_Source\PSoC5/CapSense_1.c **** /*******************************************************************************
1055:Generated_Source\PSoC5/CapSense_1.c **** * Function Name: CapSense_1_ReadSensorRaw
1056:Generated_Source\PSoC5/CapSense_1.c **** ********************************************************************************
1057:Generated_Source\PSoC5/CapSense_1.c **** *
1058:Generated_Source\PSoC5/CapSense_1.c **** * Summary:
1059:Generated_Source\PSoC5/CapSense_1.c **** *  Returns scan sensor raw data from the CapSense_1_sensorRaw[] array. 
1060:Generated_Source\PSoC5/CapSense_1.c **** *  Each scan sensor has a unique number within the sensor array. This number 
1061:Generated_Source\PSoC5/CapSense_1.c **** *  is assigned by the CapSense customizer in sequence.
1062:Generated_Source\PSoC5/CapSense_1.c **** *
1063:Generated_Source\PSoC5/CapSense_1.c **** * Parameters:
1064:Generated_Source\PSoC5/CapSense_1.c **** *  sensor:  Sensor number.
1065:Generated_Source\PSoC5/CapSense_1.c **** *
1066:Generated_Source\PSoC5/CapSense_1.c **** * Return:
1067:Generated_Source\PSoC5/CapSense_1.c **** *  Returns current raw data value for defined sensor number.
1068:Generated_Source\PSoC5/CapSense_1.c **** *
1069:Generated_Source\PSoC5/CapSense_1.c **** * Global Variables:
1070:Generated_Source\PSoC5/CapSense_1.c **** *  CapSense_1_sensorRaw[] - used to store sensors raw data.
1071:Generated_Source\PSoC5/CapSense_1.c **** *
1072:Generated_Source\PSoC5/CapSense_1.c **** *******************************************************************************/
1073:Generated_Source\PSoC5/CapSense_1.c **** uint16 CapSense_1_ReadSensorRaw(uint8 sensor) 
1074:Generated_Source\PSoC5/CapSense_1.c **** {
 175              		.loc 1 1074 0
 176              		.cfi_startproc
 177              		@ args = 0, pretend = 0, frame = 0
 178              		@ frame_needed = 0, uses_anonymous_args = 0
 179              		@ link register save eliminated.
 180              	.LVL11:
ARM GAS  C:\Users\ash750\AppData\Local\Temp\ccm8BDlp.s 			page 23


1075:Generated_Source\PSoC5/CapSense_1.c ****     return (CapSense_1_sensorRaw[sensor]);
1076:Generated_Source\PSoC5/CapSense_1.c **** }
 181              		.loc 1 1076 0
 182 0000 014B     		ldr	r3, .L14
 183 0002 33F81000 		ldrh	r0, [r3, r0, lsl #1]
 184              	.LVL12:
 185 0006 7047     		bx	lr
 186              	.L15:
 187              		.align	2
 188              	.L14:
 189 0008 00000000 		.word	CapSense_1_sensorRaw
 190              		.cfi_endproc
 191              	.LFE9:
 192              		.size	CapSense_1_ReadSensorRaw, .-CapSense_1_ReadSensorRaw
 193              		.section	.text.CapSense_1_EnableSensor,"ax",%progbits
 194              		.align	2
 195              		.global	CapSense_1_EnableSensor
 196              		.thumb
 197              		.thumb_func
 198              		.type	CapSense_1_EnableSensor, %function
 199              	CapSense_1_EnableSensor:
 200              	.LFB11:
1077:Generated_Source\PSoC5/CapSense_1.c **** 
1078:Generated_Source\PSoC5/CapSense_1.c **** 
1079:Generated_Source\PSoC5/CapSense_1.c **** /*******************************************************************************
1080:Generated_Source\PSoC5/CapSense_1.c **** * Function Name: CapSense_1_ClearSensors
1081:Generated_Source\PSoC5/CapSense_1.c **** ********************************************************************************
1082:Generated_Source\PSoC5/CapSense_1.c **** *
1083:Generated_Source\PSoC5/CapSense_1.c **** * Summary:
1084:Generated_Source\PSoC5/CapSense_1.c **** *  Resets all sensors to the non-sampling state by sequentially disconnecting
1085:Generated_Source\PSoC5/CapSense_1.c **** *  all sensors from Analog MUX Bus and putting them to inactive state.
1086:Generated_Source\PSoC5/CapSense_1.c **** *
1087:Generated_Source\PSoC5/CapSense_1.c **** * Parameters:
1088:Generated_Source\PSoC5/CapSense_1.c **** *  None
1089:Generated_Source\PSoC5/CapSense_1.c **** *
1090:Generated_Source\PSoC5/CapSense_1.c **** * Return:
1091:Generated_Source\PSoC5/CapSense_1.c **** *  None
1092:Generated_Source\PSoC5/CapSense_1.c **** *
1093:Generated_Source\PSoC5/CapSense_1.c **** *******************************************************************************/
1094:Generated_Source\PSoC5/CapSense_1.c **** void CapSense_1_ClearSensors(void) 
1095:Generated_Source\PSoC5/CapSense_1.c **** {
1096:Generated_Source\PSoC5/CapSense_1.c ****     uint8 i;
1097:Generated_Source\PSoC5/CapSense_1.c ****    
1098:Generated_Source\PSoC5/CapSense_1.c ****     for (i = 0u; i < CapSense_1_TOTAL_SENSOR_COUNT; i++)
1099:Generated_Source\PSoC5/CapSense_1.c ****     {
1100:Generated_Source\PSoC5/CapSense_1.c ****         CapSense_1_DisableScanSlot(i);
1101:Generated_Source\PSoC5/CapSense_1.c ****     }
1102:Generated_Source\PSoC5/CapSense_1.c **** }
1103:Generated_Source\PSoC5/CapSense_1.c **** 
1104:Generated_Source\PSoC5/CapSense_1.c **** 
1105:Generated_Source\PSoC5/CapSense_1.c **** #if (CapSense_1_IS_COMPLEX_SCANSLOTS)
1106:Generated_Source\PSoC5/CapSense_1.c ****     /*******************************************************************************
1107:Generated_Source\PSoC5/CapSense_1.c ****     * Function Name: CapSense_1_EnableScanSlot
1108:Generated_Source\PSoC5/CapSense_1.c ****     ********************************************************************************
1109:Generated_Source\PSoC5/CapSense_1.c ****     *
1110:Generated_Source\PSoC5/CapSense_1.c ****     * Summary:
1111:Generated_Source\PSoC5/CapSense_1.c ****     *  Configures the selected slot to measure during the next measurement 
ARM GAS  C:\Users\ash750\AppData\Local\Temp\ccm8BDlp.s 			page 24


1112:Generated_Source\PSoC5/CapSense_1.c ****     *  cycle. The corresponding pin/pins are set to Analog High-Z mode and 
1113:Generated_Source\PSoC5/CapSense_1.c ****     *  connected to the Analog Mux Bus. This also enables the comparator function.
1114:Generated_Source\PSoC5/CapSense_1.c ****     *
1115:Generated_Source\PSoC5/CapSense_1.c ****     * Parameters:
1116:Generated_Source\PSoC5/CapSense_1.c ****     *  slot:  Slot number.
1117:Generated_Source\PSoC5/CapSense_1.c ****     *
1118:Generated_Source\PSoC5/CapSense_1.c ****     * Return:
1119:Generated_Source\PSoC5/CapSense_1.c ****     *  None
1120:Generated_Source\PSoC5/CapSense_1.c ****     *
1121:Generated_Source\PSoC5/CapSense_1.c ****     * Global Constants:
1122:Generated_Source\PSoC5/CapSense_1.c ****     *  CapSense_1_portTable[]  - used to store the port number that pin 
1123:Generated_Source\PSoC5/CapSense_1.c ****     *  belongs to for every sensor.
1124:Generated_Source\PSoC5/CapSense_1.c ****     *  CapSense_1_maskTable[]  - used to store the pin within the port for 
1125:Generated_Source\PSoC5/CapSense_1.c ****     *  every sensor.
1126:Generated_Source\PSoC5/CapSense_1.c ****     *  CapSense_1_indexTable[] - used to store indexes of complex sensors.
1127:Generated_Source\PSoC5/CapSense_1.c ****     *  The offset and position in this array are stored in port and mask table for 
1128:Generated_Source\PSoC5/CapSense_1.c ****     *  complex sensors.
1129:Generated_Source\PSoC5/CapSense_1.c ****     *  The bit 7 (msb) is used to define the sensor type: single or complex.
1130:Generated_Source\PSoC5/CapSense_1.c ****     *
1131:Generated_Source\PSoC5/CapSense_1.c ****     *******************************************************************************/
1132:Generated_Source\PSoC5/CapSense_1.c ****     void CapSense_1_EnableScanSlot(uint8 slot) CYREENTRANT
1133:Generated_Source\PSoC5/CapSense_1.c ****     {
1134:Generated_Source\PSoC5/CapSense_1.c ****         uint8 j;
1135:Generated_Source\PSoC5/CapSense_1.c ****         uint8 snsNumber;
1136:Generated_Source\PSoC5/CapSense_1.c ****         const uint8 CYCODE *index;
1137:Generated_Source\PSoC5/CapSense_1.c ****         /* Read the sensor type: single or complex */
1138:Generated_Source\PSoC5/CapSense_1.c ****         uint8 snsType = CapSense_1_portTable[slot];
1139:Generated_Source\PSoC5/CapSense_1.c ****         
1140:Generated_Source\PSoC5/CapSense_1.c ****         /* Check if sensor is complex */
1141:Generated_Source\PSoC5/CapSense_1.c ****         if ((snsType & CapSense_1_COMPLEX_SS_FLAG) == 0u)
1142:Generated_Source\PSoC5/CapSense_1.c ****         {
1143:Generated_Source\PSoC5/CapSense_1.c ****             /* Enable sensor (signle) */
1144:Generated_Source\PSoC5/CapSense_1.c ****             CapSense_1_EnableSensor(slot);
1145:Generated_Source\PSoC5/CapSense_1.c ****         }
1146:Generated_Source\PSoC5/CapSense_1.c ****         else
1147:Generated_Source\PSoC5/CapSense_1.c ****         {
1148:Generated_Source\PSoC5/CapSense_1.c ****             /* Enable complex sensor */
1149:Generated_Source\PSoC5/CapSense_1.c ****             snsType &= ~CapSense_1_COMPLEX_SS_FLAG;
1150:Generated_Source\PSoC5/CapSense_1.c ****             index = &CapSense_1_indexTable[snsType];
1151:Generated_Source\PSoC5/CapSense_1.c ****             snsNumber = CapSense_1_maskTable[slot];
1152:Generated_Source\PSoC5/CapSense_1.c ****                         
1153:Generated_Source\PSoC5/CapSense_1.c ****             for (j=0u; j < snsNumber; j++)
1154:Generated_Source\PSoC5/CapSense_1.c ****             {
1155:Generated_Source\PSoC5/CapSense_1.c ****                 CapSense_1_EnableSensor(index[j]);
1156:Generated_Source\PSoC5/CapSense_1.c ****             }
1157:Generated_Source\PSoC5/CapSense_1.c ****         } 
1158:Generated_Source\PSoC5/CapSense_1.c ****     }
1159:Generated_Source\PSoC5/CapSense_1.c ****     
1160:Generated_Source\PSoC5/CapSense_1.c ****     
1161:Generated_Source\PSoC5/CapSense_1.c ****     /*******************************************************************************
1162:Generated_Source\PSoC5/CapSense_1.c ****     * Function Name: CapSense_1_DisableScanSlot
1163:Generated_Source\PSoC5/CapSense_1.c ****     ********************************************************************************
1164:Generated_Source\PSoC5/CapSense_1.c ****     *
1165:Generated_Source\PSoC5/CapSense_1.c ****     * Summary:
1166:Generated_Source\PSoC5/CapSense_1.c ****     *  Disables the selected slot. The corresponding pin/pis is/are disconnected 
1167:Generated_Source\PSoC5/CapSense_1.c ****     *  from the Analog Mux Bus and connected to GND, High_Z or Shield electrode.
1168:Generated_Source\PSoC5/CapSense_1.c ****     *
ARM GAS  C:\Users\ash750\AppData\Local\Temp\ccm8BDlp.s 			page 25


1169:Generated_Source\PSoC5/CapSense_1.c ****     * Parameters:
1170:Generated_Source\PSoC5/CapSense_1.c ****     *  slot:  Slot number.
1171:Generated_Source\PSoC5/CapSense_1.c ****     *
1172:Generated_Source\PSoC5/CapSense_1.c ****     * Return:
1173:Generated_Source\PSoC5/CapSense_1.c ****     *  None
1174:Generated_Source\PSoC5/CapSense_1.c ****     *
1175:Generated_Source\PSoC5/CapSense_1.c ****     * Global Variables:
1176:Generated_Source\PSoC5/CapSense_1.c ****     *  CapSense_1_portTable[]  - used to store the port number that pin 
1177:Generated_Source\PSoC5/CapSense_1.c ****     *  belongs to for every sensor.
1178:Generated_Source\PSoC5/CapSense_1.c ****     *  CapSense_1_maskTable[]  - used to store the pin within the port for 
1179:Generated_Source\PSoC5/CapSense_1.c ****     *  every sensor.
1180:Generated_Source\PSoC5/CapSense_1.c ****     *  CapSense_1_indexTable[] - used to store indexes of complex sensors.
1181:Generated_Source\PSoC5/CapSense_1.c ****     *  The offset and position in this array are stored in port and mask table for 
1182:Generated_Source\PSoC5/CapSense_1.c ****     *  complex sensors.
1183:Generated_Source\PSoC5/CapSense_1.c ****     *  The 7bit(msb) is used to define the sensor type: single or complex.
1184:Generated_Source\PSoC5/CapSense_1.c ****     *
1185:Generated_Source\PSoC5/CapSense_1.c ****     *******************************************************************************/
1186:Generated_Source\PSoC5/CapSense_1.c ****     void CapSense_1_DisableScanSlot(uint8 slot) CYREENTRANT
1187:Generated_Source\PSoC5/CapSense_1.c ****     {
1188:Generated_Source\PSoC5/CapSense_1.c ****         uint8 j;
1189:Generated_Source\PSoC5/CapSense_1.c ****         uint8 snsNumber;
1190:Generated_Source\PSoC5/CapSense_1.c ****         const uint8 CYCODE *index;
1191:Generated_Source\PSoC5/CapSense_1.c ****         /* Read the sensor type: single or complex */
1192:Generated_Source\PSoC5/CapSense_1.c ****         uint8 snsType = CapSense_1_portTable[slot];
1193:Generated_Source\PSoC5/CapSense_1.c ****         
1194:Generated_Source\PSoC5/CapSense_1.c ****         /* Check if sensor is complex */
1195:Generated_Source\PSoC5/CapSense_1.c ****         if ((snsType & CapSense_1_COMPLEX_SS_FLAG) == 0u)
1196:Generated_Source\PSoC5/CapSense_1.c ****         {
1197:Generated_Source\PSoC5/CapSense_1.c ****             /* Disable sensor (signle) */
1198:Generated_Source\PSoC5/CapSense_1.c ****             CapSense_1_DisableSensor(slot);
1199:Generated_Source\PSoC5/CapSense_1.c ****         }
1200:Generated_Source\PSoC5/CapSense_1.c ****         else
1201:Generated_Source\PSoC5/CapSense_1.c ****         {
1202:Generated_Source\PSoC5/CapSense_1.c ****             /* Disable complex sensor */
1203:Generated_Source\PSoC5/CapSense_1.c ****             snsType &= ~CapSense_1_COMPLEX_SS_FLAG;
1204:Generated_Source\PSoC5/CapSense_1.c ****             index = &CapSense_1_indexTable[snsType];
1205:Generated_Source\PSoC5/CapSense_1.c ****             snsNumber = CapSense_1_maskTable[slot];
1206:Generated_Source\PSoC5/CapSense_1.c ****                         
1207:Generated_Source\PSoC5/CapSense_1.c ****             for (j=0u; j < snsNumber; j++)
1208:Generated_Source\PSoC5/CapSense_1.c ****             {
1209:Generated_Source\PSoC5/CapSense_1.c ****                 CapSense_1_DisableSensor(index[j]);
1210:Generated_Source\PSoC5/CapSense_1.c ****             }
1211:Generated_Source\PSoC5/CapSense_1.c ****         } 
1212:Generated_Source\PSoC5/CapSense_1.c ****     }
1213:Generated_Source\PSoC5/CapSense_1.c **** #endif  /* CapSense_1_IS_COMPLEX_SCANSLOTS */
1214:Generated_Source\PSoC5/CapSense_1.c **** 
1215:Generated_Source\PSoC5/CapSense_1.c **** 
1216:Generated_Source\PSoC5/CapSense_1.c **** /*******************************************************************************
1217:Generated_Source\PSoC5/CapSense_1.c **** * Function Name: CapSense_1_EnableSensor
1218:Generated_Source\PSoC5/CapSense_1.c **** ********************************************************************************
1219:Generated_Source\PSoC5/CapSense_1.c **** *
1220:Generated_Source\PSoC5/CapSense_1.c **** * Summary:
1221:Generated_Source\PSoC5/CapSense_1.c **** *  Configures the selected sensor to measure during the next measurement cycle.
1222:Generated_Source\PSoC5/CapSense_1.c **** *  The corresponding pins are set to Analog High-Z mode and connected to the
1223:Generated_Source\PSoC5/CapSense_1.c **** *  Analog Mux Bus. This also enables the comparator function.
1224:Generated_Source\PSoC5/CapSense_1.c **** *
1225:Generated_Source\PSoC5/CapSense_1.c **** * Parameters:
ARM GAS  C:\Users\ash750\AppData\Local\Temp\ccm8BDlp.s 			page 26


1226:Generated_Source\PSoC5/CapSense_1.c **** *  sensor:  Sensor number.
1227:Generated_Source\PSoC5/CapSense_1.c **** *
1228:Generated_Source\PSoC5/CapSense_1.c **** * Return:
1229:Generated_Source\PSoC5/CapSense_1.c **** *  None
1230:Generated_Source\PSoC5/CapSense_1.c **** *
1231:Generated_Source\PSoC5/CapSense_1.c **** * Global Variables:
1232:Generated_Source\PSoC5/CapSense_1.c **** *  CapSense_1_portTable[] - used to store the port number that pin 
1233:Generated_Source\PSoC5/CapSense_1.c **** *  belongs to for every sensor.
1234:Generated_Source\PSoC5/CapSense_1.c **** *  CapSense_1_maskTable[] - used to store the pin within the port for 
1235:Generated_Source\PSoC5/CapSense_1.c **** *  every sensor.
1236:Generated_Source\PSoC5/CapSense_1.c **** *  CapSense_1_csTable[]   - used to store the pointers to CAPS_SEL 
1237:Generated_Source\PSoC5/CapSense_1.c **** *  registers for every port.
1238:Generated_Source\PSoC5/CapSense_1.c **** *  CapSense_1_pcTable[]   - used to store the pointers to PC pin 
1239:Generated_Source\PSoC5/CapSense_1.c **** *  register for every sensor.
1240:Generated_Source\PSoC5/CapSense_1.c **** *  CapSense_1_amuxIndex[] - used to store corrected AMUX index when 
1241:Generated_Source\PSoC5/CapSense_1.c **** *  complex sensors are defeined.
1242:Generated_Source\PSoC5/CapSense_1.c **** *
1243:Generated_Source\PSoC5/CapSense_1.c **** *******************************************************************************/
1244:Generated_Source\PSoC5/CapSense_1.c **** void CapSense_1_EnableSensor(uint8 sensor) CYREENTRANT
1245:Generated_Source\PSoC5/CapSense_1.c **** {
 201              		.loc 1 1245 0
 202              		.cfi_startproc
 203              		@ args = 0, pretend = 0, frame = 0
 204              		@ frame_needed = 0, uses_anonymous_args = 0
 205              	.LVL13:
 206 0000 08B5     		push	{r3, lr}
 207              		.cfi_def_cfa_offset 8
 208              		.cfi_offset 3, -8
 209              		.cfi_offset 14, -4
 210              	.LVL14:
1246:Generated_Source\PSoC5/CapSense_1.c ****     uint8 port = CapSense_1_portTable[sensor];
1247:Generated_Source\PSoC5/CapSense_1.c ****     uint8 mask = CapSense_1_maskTable[sensor];
1248:Generated_Source\PSoC5/CapSense_1.c ****     
1249:Generated_Source\PSoC5/CapSense_1.c ****     #if ((CapSense_1_DESIGN_TYPE == CapSense_1_TWO_CHANNELS_DESIGN) && \
1250:Generated_Source\PSoC5/CapSense_1.c ****          (CapSense_1_IS_COMPLEX_SCANSLOTS))
1251:Generated_Source\PSoC5/CapSense_1.c ****         uint8 amuxCh = CapSense_1_amuxIndex[sensor];
1252:Generated_Source\PSoC5/CapSense_1.c ****     #endif  /* ((CapSense_1_DESIGN_TYPE == CapSense_1_TWO_CHANNELS_DESIGN) && \
1253:Generated_Source\PSoC5/CapSense_1.c ****             *   (CapSense_1_IS_COMPLEX_SCANSLOTS))
1254:Generated_Source\PSoC5/CapSense_1.c ****             */
1255:Generated_Source\PSoC5/CapSense_1.c ****     
1256:Generated_Source\PSoC5/CapSense_1.c ****     /* Make sensor High-Z */
1257:Generated_Source\PSoC5/CapSense_1.c ****     *CapSense_1_pcTable[sensor] = CapSense_1_PRT_PC_HIGHZ;
 211              		.loc 1 1257 0
 212 0002 0922     		movs	r2, #9
 213 0004 044B     		ldr	r3, .L18
 214 0006 1A70     		strb	r2, [r3]
1258:Generated_Source\PSoC5/CapSense_1.c ****     
1259:Generated_Source\PSoC5/CapSense_1.c ****     /* Connect to DSI output */
1260:Generated_Source\PSoC5/CapSense_1.c **** 	if(port == 15u)
1261:Generated_Source\PSoC5/CapSense_1.c **** 	{
1262:Generated_Source\PSoC5/CapSense_1.c **** 		port = 7u;
1263:Generated_Source\PSoC5/CapSense_1.c **** 	}
1264:Generated_Source\PSoC5/CapSense_1.c ****     *CapSense_1_csTable[port] |= mask;
 215              		.loc 1 1264 0
 216 0008 044A     		ldr	r2, .L18+4
 217 000a 1378     		ldrb	r3, [r2]	@ zero_extendqisi2
 218 000c 43F04003 		orr	r3, r3, #64
ARM GAS  C:\Users\ash750\AppData\Local\Temp\ccm8BDlp.s 			page 27


 219 0010 1370     		strb	r3, [r2]
1265:Generated_Source\PSoC5/CapSense_1.c ****     
1266:Generated_Source\PSoC5/CapSense_1.c ****     /* Connect to AMUX */
1267:Generated_Source\PSoC5/CapSense_1.c ****     #if (CapSense_1_DESIGN_TYPE == CapSense_1_ONE_CHANNEL_DESIGN)
1268:Generated_Source\PSoC5/CapSense_1.c ****         #if (CapSense_1_IS_COMPLEX_SCANSLOTS)
1269:Generated_Source\PSoC5/CapSense_1.c ****             CapSense_1_AMuxCH0_Connect(CapSense_1_amuxIndex[sensor]);
1270:Generated_Source\PSoC5/CapSense_1.c ****         #else
1271:Generated_Source\PSoC5/CapSense_1.c ****             CapSense_1_AMuxCH0_Connect(sensor);
 220              		.loc 1 1271 0
 221 0012 FFF7FEFF 		bl	CapSense_1_AMuxCH0_Set
 222              	.LVL15:
 223 0016 08BD     		pop	{r3, pc}
 224              	.L19:
 225              		.align	2
 226              	.L18:
 227 0018 0E500040 		.word	1073762318
 228 001c 0E520040 		.word	1073762830
 229              		.cfi_endproc
 230              	.LFE11:
 231              		.size	CapSense_1_EnableSensor, .-CapSense_1_EnableSensor
 232              		.section	.text.CapSense_1_DisableSensor,"ax",%progbits
 233              		.align	2
 234              		.global	CapSense_1_DisableSensor
 235              		.thumb
 236              		.thumb_func
 237              		.type	CapSense_1_DisableSensor, %function
 238              	CapSense_1_DisableSensor:
 239              	.LFB12:
1272:Generated_Source\PSoC5/CapSense_1.c ****         #endif  /* CapSense_1_IS_COMPLEX_SCANSLOTS */
1273:Generated_Source\PSoC5/CapSense_1.c ****                 
1274:Generated_Source\PSoC5/CapSense_1.c ****     #else
1275:Generated_Source\PSoC5/CapSense_1.c ****         #if (CapSense_1_IS_COMPLEX_SCANSLOTS)
1276:Generated_Source\PSoC5/CapSense_1.c ****             if ((amuxCh & CapSense_1_CHANNEL1_FLAG) == 0u)
1277:Generated_Source\PSoC5/CapSense_1.c ****             {
1278:Generated_Source\PSoC5/CapSense_1.c ****                 CapSense_1_AMuxCH0_Connect(amuxCh);
1279:Generated_Source\PSoC5/CapSense_1.c ****             } 
1280:Generated_Source\PSoC5/CapSense_1.c ****             else
1281:Generated_Source\PSoC5/CapSense_1.c ****             {
1282:Generated_Source\PSoC5/CapSense_1.c ****                 amuxCh &= ~ CapSense_1_CHANNEL1_FLAG;
1283:Generated_Source\PSoC5/CapSense_1.c ****                 CapSense_1_AMuxCH1_Connect(amuxCh);
1284:Generated_Source\PSoC5/CapSense_1.c ****             }
1285:Generated_Source\PSoC5/CapSense_1.c ****             
1286:Generated_Source\PSoC5/CapSense_1.c ****         #else
1287:Generated_Source\PSoC5/CapSense_1.c ****             if (sensor < CapSense_1_TOTAL_SENSOR_COUNT__CH0) 
1288:Generated_Source\PSoC5/CapSense_1.c ****             {
1289:Generated_Source\PSoC5/CapSense_1.c ****                 CapSense_1_AMuxCH0_Connect(sensor);
1290:Generated_Source\PSoC5/CapSense_1.c ****             } 
1291:Generated_Source\PSoC5/CapSense_1.c ****             else
1292:Generated_Source\PSoC5/CapSense_1.c ****             {
1293:Generated_Source\PSoC5/CapSense_1.c ****                 CapSense_1_AMuxCH1_Connect(sensor - CapSense_1_TOTAL_SENSOR_COUNT__CH0);
1294:Generated_Source\PSoC5/CapSense_1.c ****             }
1295:Generated_Source\PSoC5/CapSense_1.c ****             
1296:Generated_Source\PSoC5/CapSense_1.c ****         #endif  /* CapSense_1_IS_COMPLEX_SCANSLOTS */
1297:Generated_Source\PSoC5/CapSense_1.c ****         
1298:Generated_Source\PSoC5/CapSense_1.c ****     #endif  /* CapSense_1_DESIGN_TYPE == CapSense_1_ONE_CHANNEL_DESIGN */
1299:Generated_Source\PSoC5/CapSense_1.c **** }
1300:Generated_Source\PSoC5/CapSense_1.c **** 
ARM GAS  C:\Users\ash750\AppData\Local\Temp\ccm8BDlp.s 			page 28


1301:Generated_Source\PSoC5/CapSense_1.c **** 
1302:Generated_Source\PSoC5/CapSense_1.c **** /*******************************************************************************
1303:Generated_Source\PSoC5/CapSense_1.c **** * Function Name: CapSense_1_DisableSensor
1304:Generated_Source\PSoC5/CapSense_1.c **** ********************************************************************************
1305:Generated_Source\PSoC5/CapSense_1.c **** *
1306:Generated_Source\PSoC5/CapSense_1.c **** * Summary:
1307:Generated_Source\PSoC5/CapSense_1.c **** *  Disables the selected sensor. The corresponding pin is disconnected from the
1308:Generated_Source\PSoC5/CapSense_1.c **** *  Analog Mux Bus and connected to GND, High_Z or Shield electrode.
1309:Generated_Source\PSoC5/CapSense_1.c **** *
1310:Generated_Source\PSoC5/CapSense_1.c **** * Parameters:
1311:Generated_Source\PSoC5/CapSense_1.c **** *  sensor:  Sensor number
1312:Generated_Source\PSoC5/CapSense_1.c **** *
1313:Generated_Source\PSoC5/CapSense_1.c **** * Return:
1314:Generated_Source\PSoC5/CapSense_1.c **** *  None
1315:Generated_Source\PSoC5/CapSense_1.c **** *
1316:Generated_Source\PSoC5/CapSense_1.c **** * Global Variables:
1317:Generated_Source\PSoC5/CapSense_1.c **** *  CapSense_1_portTable[] - used to store the port number that pin 
1318:Generated_Source\PSoC5/CapSense_1.c **** *  belongs to for every sensor.
1319:Generated_Source\PSoC5/CapSense_1.c **** *  CapSense_1_maskTable[] - used to store the pin within the port for 
1320:Generated_Source\PSoC5/CapSense_1.c **** *  every sensor.
1321:Generated_Source\PSoC5/CapSense_1.c **** *  CapSense_1_csTable[]   - used to store the pointers to CAPS_SEL 
1322:Generated_Source\PSoC5/CapSense_1.c **** *  registers for every port.
1323:Generated_Source\PSoC5/CapSense_1.c **** *  CapSense_1_pcTable[]   - used to store the pointers to PC pin 
1324:Generated_Source\PSoC5/CapSense_1.c **** *  register for every sensor.
1325:Generated_Source\PSoC5/CapSense_1.c **** *  CapSense_1_amuxIndex[] - used to store corrected AMUX index when 
1326:Generated_Source\PSoC5/CapSense_1.c **** *  complex sensors are defeined.
1327:Generated_Source\PSoC5/CapSense_1.c **** *
1328:Generated_Source\PSoC5/CapSense_1.c **** *******************************************************************************/
1329:Generated_Source\PSoC5/CapSense_1.c **** void CapSense_1_DisableSensor(uint8 sensor) CYREENTRANT
1330:Generated_Source\PSoC5/CapSense_1.c **** {
 240              		.loc 1 1330 0
 241              		.cfi_startproc
 242              		@ args = 0, pretend = 0, frame = 0
 243              		@ frame_needed = 0, uses_anonymous_args = 0
 244              	.LVL16:
 245 0000 08B5     		push	{r3, lr}
 246              		.cfi_def_cfa_offset 8
 247              		.cfi_offset 3, -8
 248              		.cfi_offset 14, -4
 249              	.LVL17:
1331:Generated_Source\PSoC5/CapSense_1.c ****     uint8 port = CapSense_1_portTable[sensor];
1332:Generated_Source\PSoC5/CapSense_1.c ****     uint8 mask = CapSense_1_maskTable[sensor];
1333:Generated_Source\PSoC5/CapSense_1.c ****     
1334:Generated_Source\PSoC5/CapSense_1.c ****     #if ((CapSense_1_DESIGN_TYPE == CapSense_1_TWO_CHANNELS_DESIGN) && \
1335:Generated_Source\PSoC5/CapSense_1.c ****          (CapSense_1_IS_COMPLEX_SCANSLOTS))
1336:Generated_Source\PSoC5/CapSense_1.c ****         uint8 amuxCh = CapSense_1_amuxIndex[sensor];
1337:Generated_Source\PSoC5/CapSense_1.c ****     #endif  /* ((CapSense_1_DESIGN_TYPE == CapSense_1_TWO_CHANNELS_DESIGN) && \
1338:Generated_Source\PSoC5/CapSense_1.c ****             *   (CapSense_1_IS_COMPLEX_SCANSLOTS))
1339:Generated_Source\PSoC5/CapSense_1.c ****             */
1340:Generated_Source\PSoC5/CapSense_1.c ****     
1341:Generated_Source\PSoC5/CapSense_1.c ****     /* Disconnect from AMUX */
1342:Generated_Source\PSoC5/CapSense_1.c ****     #if (CapSense_1_DESIGN_TYPE == CapSense_1_ONE_CHANNEL_DESIGN)
1343:Generated_Source\PSoC5/CapSense_1.c ****         #if (CapSense_1_IS_COMPLEX_SCANSLOTS)
1344:Generated_Source\PSoC5/CapSense_1.c ****             CapSense_1_AMuxCH0_Disconnect(CapSense_1_amuxIndex[sensor]);
1345:Generated_Source\PSoC5/CapSense_1.c ****         #else
1346:Generated_Source\PSoC5/CapSense_1.c ****             CapSense_1_AMuxCH0_Disconnect(sensor);
 250              		.loc 1 1346 0
ARM GAS  C:\Users\ash750\AppData\Local\Temp\ccm8BDlp.s 			page 29


 251 0002 FFF7FEFF 		bl	CapSense_1_AMuxCH0_Unset
 252              	.LVL18:
1347:Generated_Source\PSoC5/CapSense_1.c ****         #endif  /* CapSense_1_IS_COMPLEX_SCANSLOTS */
1348:Generated_Source\PSoC5/CapSense_1.c ****                 
1349:Generated_Source\PSoC5/CapSense_1.c ****     #else
1350:Generated_Source\PSoC5/CapSense_1.c ****         #if (CapSense_1_IS_COMPLEX_SCANSLOTS)
1351:Generated_Source\PSoC5/CapSense_1.c ****             if ((amuxCh & CapSense_1_CHANNEL1_FLAG) == 0u)
1352:Generated_Source\PSoC5/CapSense_1.c ****             {
1353:Generated_Source\PSoC5/CapSense_1.c ****                 CapSense_1_AMuxCH0_Disconnect(amuxCh);
1354:Generated_Source\PSoC5/CapSense_1.c ****             } 
1355:Generated_Source\PSoC5/CapSense_1.c ****             else
1356:Generated_Source\PSoC5/CapSense_1.c ****             {
1357:Generated_Source\PSoC5/CapSense_1.c ****                 amuxCh &= ~ CapSense_1_CHANNEL1_FLAG;
1358:Generated_Source\PSoC5/CapSense_1.c ****                 CapSense_1_AMuxCH1_Disconnect(amuxCh);
1359:Generated_Source\PSoC5/CapSense_1.c ****             }
1360:Generated_Source\PSoC5/CapSense_1.c ****             
1361:Generated_Source\PSoC5/CapSense_1.c ****         #else
1362:Generated_Source\PSoC5/CapSense_1.c ****             if (sensor < CapSense_1_TOTAL_SENSOR_COUNT__CH0) 
1363:Generated_Source\PSoC5/CapSense_1.c ****             {
1364:Generated_Source\PSoC5/CapSense_1.c ****                 CapSense_1_AMuxCH0_Disconnect(sensor);
1365:Generated_Source\PSoC5/CapSense_1.c ****             } 
1366:Generated_Source\PSoC5/CapSense_1.c ****             else
1367:Generated_Source\PSoC5/CapSense_1.c ****             {
1368:Generated_Source\PSoC5/CapSense_1.c ****                 CapSense_1_AMuxCH1_Disconnect(sensor - CapSense_1_TOTAL_SENSOR_COUNT__CH0);
1369:Generated_Source\PSoC5/CapSense_1.c ****             }
1370:Generated_Source\PSoC5/CapSense_1.c ****             
1371:Generated_Source\PSoC5/CapSense_1.c ****         #endif  /* CapSense_1_IS_COMPLEX_SCANSLOTS */
1372:Generated_Source\PSoC5/CapSense_1.c ****         
1373:Generated_Source\PSoC5/CapSense_1.c ****     #endif  /* CapSense_1_DESIGN_TYPE */
1374:Generated_Source\PSoC5/CapSense_1.c ****     
1375:Generated_Source\PSoC5/CapSense_1.c ****     /* Disconnect from DSI output */
1376:Generated_Source\PSoC5/CapSense_1.c **** 	if(port == 15u)
1377:Generated_Source\PSoC5/CapSense_1.c **** 	{
1378:Generated_Source\PSoC5/CapSense_1.c **** 		port = 7u;
1379:Generated_Source\PSoC5/CapSense_1.c **** 	}
1380:Generated_Source\PSoC5/CapSense_1.c ****     *CapSense_1_csTable[port] &= (uint8)~mask;
 253              		.loc 1 1380 0
 254 0006 044A     		ldr	r2, .L22
 255 0008 1378     		ldrb	r3, [r2]	@ zero_extendqisi2
 256 000a 23F04003 		bic	r3, r3, #64
 257 000e 1370     		strb	r3, [r2]
1381:Generated_Source\PSoC5/CapSense_1.c ****     
1382:Generated_Source\PSoC5/CapSense_1.c ****     /* Set sensor to inactive state */
1383:Generated_Source\PSoC5/CapSense_1.c ****     #if (CapSense_1_CONNECT_INACTIVE_SNS == CapSense_1_CIS_GND)
1384:Generated_Source\PSoC5/CapSense_1.c ****         *CapSense_1_pcTable[sensor] = CapSense_1_PRT_PC_GND;
 258              		.loc 1 1384 0
 259 0010 0822     		movs	r2, #8
 260 0012 024B     		ldr	r3, .L22+4
 261 0014 1A70     		strb	r2, [r3]
 262 0016 08BD     		pop	{r3, pc}
 263              	.L23:
 264              		.align	2
 265              	.L22:
 266 0018 0E520040 		.word	1073762830
 267 001c 0E500040 		.word	1073762318
 268              		.cfi_endproc
 269              	.LFE12:
ARM GAS  C:\Users\ash750\AppData\Local\Temp\ccm8BDlp.s 			page 30


 270              		.size	CapSense_1_DisableSensor, .-CapSense_1_DisableSensor
 271              		.section	.text.CapSense_1_ClearSensors,"ax",%progbits
 272              		.align	2
 273              		.global	CapSense_1_ClearSensors
 274              		.thumb
 275              		.thumb_func
 276              		.type	CapSense_1_ClearSensors, %function
 277              	CapSense_1_ClearSensors:
 278              	.LFB10:
1095:Generated_Source\PSoC5/CapSense_1.c ****     uint8 i;
 279              		.loc 1 1095 0
 280              		.cfi_startproc
 281              		@ args = 0, pretend = 0, frame = 0
 282              		@ frame_needed = 0, uses_anonymous_args = 0
 283 0000 10B5     		push	{r4, lr}
 284              		.cfi_def_cfa_offset 8
 285              		.cfi_offset 4, -8
 286              		.cfi_offset 14, -4
 287              	.LVL19:
1098:Generated_Source\PSoC5/CapSense_1.c ****     {
 288              		.loc 1 1098 0
 289 0002 0024     		movs	r4, #0
 290 0004 04E0     		b	.L25
 291              	.LVL20:
 292              	.L26:
1100:Generated_Source\PSoC5/CapSense_1.c ****     }
 293              		.loc 1 1100 0 discriminator 3
 294 0006 2046     		mov	r0, r4
 295 0008 FFF7FEFF 		bl	CapSense_1_DisableSensor
 296              	.LVL21:
1098:Generated_Source\PSoC5/CapSense_1.c ****     {
 297              		.loc 1 1098 0 discriminator 3
 298 000c 0134     		adds	r4, r4, #1
 299              	.LVL22:
 300 000e E4B2     		uxtb	r4, r4
 301              	.LVL23:
 302              	.L25:
1098:Generated_Source\PSoC5/CapSense_1.c ****     {
 303              		.loc 1 1098 0 is_stmt 0 discriminator 1
 304 0010 002C     		cmp	r4, #0
 305 0012 F8D0     		beq	.L26
1102:Generated_Source\PSoC5/CapSense_1.c **** 
 306              		.loc 1 1102 0 is_stmt 1
 307 0014 10BD     		pop	{r4, pc}
 308              		.cfi_endproc
 309              	.LFE10:
 310              		.size	CapSense_1_ClearSensors, .-CapSense_1_ClearSensors
 311 0016 00BF     		.section	.text.CapSense_1_Stop,"ax",%progbits
 312              		.align	2
 313              		.global	CapSense_1_Stop
 314              		.thumb
 315              		.thumb_func
 316              		.type	CapSense_1_Stop, %function
 317              	CapSense_1_Stop:
 318              	.LFB3:
 515:Generated_Source\PSoC5/CapSense_1.c ****     /* Stop Capsensing */
 319              		.loc 1 515 0
ARM GAS  C:\Users\ash750\AppData\Local\Temp\ccm8BDlp.s 			page 31


 320              		.cfi_startproc
 321              		@ args = 0, pretend = 0, frame = 0
 322              		@ frame_needed = 0, uses_anonymous_args = 0
 323 0000 10B5     		push	{r4, lr}
 324              		.cfi_def_cfa_offset 8
 325              		.cfi_offset 4, -8
 326              		.cfi_offset 14, -4
 517:Generated_Source\PSoC5/CapSense_1.c ****     
 327              		.loc 1 517 0
 328 0002 154C     		ldr	r4, .L30
 329 0004 2378     		ldrb	r3, [r4]	@ zero_extendqisi2
 330 0006 03F0FD03 		and	r3, r3, #253
 331 000a 2370     		strb	r3, [r4]
 520:Generated_Source\PSoC5/CapSense_1.c ****     #if (CapSense_1_DESIGN_TYPE == CapSense_1_TWO_CHANNELS_DESIGN) 
 332              		.loc 1 520 0
 333 000c 0122     		movs	r2, #1
 334 000e 134B     		ldr	r3, .L30+4
 335 0010 1A60     		str	r2, [r3]
 526:Generated_Source\PSoC5/CapSense_1.c ****     
 336              		.loc 1 526 0
 337 0012 FFF7FEFF 		bl	CapSense_1_ClearSensors
 338              	.LVL24:
 540:Generated_Source\PSoC5/CapSense_1.c ****     
 339              		.loc 1 540 0
 340 0016 124A     		ldr	r2, .L30+8
 341 0018 1378     		ldrb	r3, [r2]	@ zero_extendqisi2
 342 001a 03F0DF03 		and	r3, r3, #223
 343 001e 1370     		strb	r3, [r2]
 579:Generated_Source\PSoC5/CapSense_1.c ****     #endif  /* CapSense_1_CLOCK_SOURCE */
 344              		.loc 1 579 0
 345 0020 FFF7FEFF 		bl	CapSense_1_IntClock_Stop
 346              	.LVL25:
 583:Generated_Source\PSoC5/CapSense_1.c ****     #if (CapSense_1_CURRENT_SOURCE)
 347              		.loc 1 583 0
 348 0024 FFF7FEFF 		bl	CapSense_1_CompCH0_Stop
 349              	.LVL26:
 585:Generated_Source\PSoC5/CapSense_1.c ****     #endif  /* CapSense_1_CURRENT_SOURCE */
 350              		.loc 1 585 0
 351 0028 FFF7FEFF 		bl	CapSense_1_IdacCH0_Stop
 352              	.LVL27:
 607:Generated_Source\PSoC5/CapSense_1.c ****         CapSense_1_BufCH0_ACT_PWRMGR_REG &= (uint8)(~CapSense_1_BufCH0_ACT_PWR_EN);
 353              		.loc 1 607 0
 354 002c 0D4A     		ldr	r2, .L30+12
 355 002e 1378     		ldrb	r3, [r2]	@ zero_extendqisi2
 356 0030 03F0FE03 		and	r3, r3, #254
 357 0034 1370     		strb	r3, [r2]
 608:Generated_Source\PSoC5/CapSense_1.c ****         CapSense_1_BufCH0_STBY_PWRMGR_REG &= (uint8)(~CapSense_1_BufCH0_STBY_PWR_EN);
 358              		.loc 1 608 0
 359 0036 A2F5A652 		sub	r2, r2, #5312
 360 003a 073A     		subs	r2, r2, #7
 361 003c 1378     		ldrb	r3, [r2]	@ zero_extendqisi2
 362 003e 03F0DF03 		and	r3, r3, #223
 363 0042 1370     		strb	r3, [r2]
 609:Generated_Source\PSoC5/CapSense_1.c ****         
 364              		.loc 1 609 0
 365 0044 1032     		adds	r2, r2, #16
 366 0046 1378     		ldrb	r3, [r2]	@ zero_extendqisi2
ARM GAS  C:\Users\ash750\AppData\Local\Temp\ccm8BDlp.s 			page 32


 367 0048 03F0DF03 		and	r3, r3, #223
 368 004c 1370     		strb	r3, [r2]
 619:Generated_Source\PSoC5/CapSense_1.c **** }
 369              		.loc 1 619 0
 370 004e 2378     		ldrb	r3, [r4]	@ zero_extendqisi2
 371 0050 03F07F03 		and	r3, r3, #127
 372 0054 2370     		strb	r3, [r4]
 373 0056 10BD     		pop	{r4, pc}
 374              	.L31:
 375              		.align	2
 376              	.L30:
 377 0058 76640040 		.word	1073767542
 378 005c 80E100E0 		.word	-536813184
 379 0060 94640040 		.word	1073767572
 380 0064 72580040 		.word	1073764466
 381              		.cfi_endproc
 382              	.LFE3:
 383              		.size	CapSense_1_Stop, .-CapSense_1_Stop
 384              		.section	.text.CapSense_1_PostScan,"ax",%progbits
 385              		.align	2
 386              		.global	CapSense_1_PostScan
 387              		.thumb
 388              		.thumb_func
 389              		.type	CapSense_1_PostScan, %function
 390              	CapSense_1_PostScan:
 391              	.LFB14:
1385:Generated_Source\PSoC5/CapSense_1.c ****     #elif (CapSense_1_CONNECT_INACTIVE_SNS == CapSense_1_CIS_HIGHZ)
1386:Generated_Source\PSoC5/CapSense_1.c ****         *CapSense_1_pcTable[sensor] = CapSense_1_PRT_PC_HIGHZ;
1387:Generated_Source\PSoC5/CapSense_1.c ****     #else
1388:Generated_Source\PSoC5/CapSense_1.c ****         *CapSense_1_pcTable[sensor] = CapSense_1_PRT_PC_SHIELD;
1389:Generated_Source\PSoC5/CapSense_1.c ****     #endif  /* (CapSense_1_CONNECT_INACTIVE_SNS == CapSense_1_CIS_GND) */
1390:Generated_Source\PSoC5/CapSense_1.c **** }
1391:Generated_Source\PSoC5/CapSense_1.c **** 
1392:Generated_Source\PSoC5/CapSense_1.c **** 
1393:Generated_Source\PSoC5/CapSense_1.c **** /*******************************************************************************
1394:Generated_Source\PSoC5/CapSense_1.c **** * Function Name: CapSense_1_PreScan
1395:Generated_Source\PSoC5/CapSense_1.c **** ********************************************************************************
1396:Generated_Source\PSoC5/CapSense_1.c **** *
1397:Generated_Source\PSoC5/CapSense_1.c **** * Summary:
1398:Generated_Source\PSoC5/CapSense_1.c **** *  Set required settings, enable sensor, remove Vref from AMUX and start the 
1399:Generated_Source\PSoC5/CapSense_1.c **** *  scanning process of the sensor.
1400:Generated_Source\PSoC5/CapSense_1.c **** *
1401:Generated_Source\PSoC5/CapSense_1.c **** * Parameters:
1402:Generated_Source\PSoC5/CapSense_1.c **** *  sensor:  Sensor number.
1403:Generated_Source\PSoC5/CapSense_1.c **** *
1404:Generated_Source\PSoC5/CapSense_1.c **** * Return:
1405:Generated_Source\PSoC5/CapSense_1.c **** *  None
1406:Generated_Source\PSoC5/CapSense_1.c **** *
1407:Generated_Source\PSoC5/CapSense_1.c **** * Global Variables:
1408:Generated_Source\PSoC5/CapSense_1.c **** *  CapSense_1_rbTable[] - used to store pointers to PC pin registers for 
1409:Generated_Source\PSoC5/CapSense_1.c **** *  every bleed resistor (Rb). Only available when Current Source is External 
1410:Generated_Source\PSoC5/CapSense_1.c **** *  resistor.
1411:Generated_Source\PSoC5/CapSense_1.c **** *
1412:Generated_Source\PSoC5/CapSense_1.c **** *******************************************************************************/
1413:Generated_Source\PSoC5/CapSense_1.c **** void CapSense_1_PreScan(uint8 sensor) CYREENTRANT
1414:Generated_Source\PSoC5/CapSense_1.c **** {
1415:Generated_Source\PSoC5/CapSense_1.c ****     /* Set Sensor Settings */
ARM GAS  C:\Users\ash750\AppData\Local\Temp\ccm8BDlp.s 			page 33


1416:Generated_Source\PSoC5/CapSense_1.c ****     CapSense_1_SetScanSlotSettings(sensor);
1417:Generated_Source\PSoC5/CapSense_1.c ****     
1418:Generated_Source\PSoC5/CapSense_1.c ****     /* Place disable interrupts here to eliminate influence on start of scanning */
1419:Generated_Source\PSoC5/CapSense_1.c ****     /* `#START CapSense_1_PreScan_DisableInt` */
1420:Generated_Source\PSoC5/CapSense_1.c **** 
1421:Generated_Source\PSoC5/CapSense_1.c ****     /* `#END` */
1422:Generated_Source\PSoC5/CapSense_1.c ****     
1423:Generated_Source\PSoC5/CapSense_1.c ****     #ifdef CapSense_1_PRE_SCAN_DISABLE_INT_CALLBACK
1424:Generated_Source\PSoC5/CapSense_1.c ****     CapSense_1_PreScan_DisableInt_Callback();
1425:Generated_Source\PSoC5/CapSense_1.c ****     #endif /* CapSense_1_PRE_SCAN_DISABLE_INT_CALLBACK */
1426:Generated_Source\PSoC5/CapSense_1.c **** 
1427:Generated_Source\PSoC5/CapSense_1.c ****     /* Resets digital and pre-charge clocks */
1428:Generated_Source\PSoC5/CapSense_1.c ****     CapSense_1_CONTROL_REG |= CapSense_1_CTRL_SYNC_EN;
1429:Generated_Source\PSoC5/CapSense_1.c ****         
1430:Generated_Source\PSoC5/CapSense_1.c ****     #if (CapSense_1_DESIGN_TYPE == CapSense_1_ONE_CHANNEL_DESIGN)
1431:Generated_Source\PSoC5/CapSense_1.c ****         #if (CapSense_1_CURRENT_SOURCE == CapSense_1_IDAC_SOURCE)
1432:Generated_Source\PSoC5/CapSense_1.c ****             /* Disable Vref from AMux */
1433:Generated_Source\PSoC5/CapSense_1.c ****             #if (CapSense_1_VREF_VDAC == CapSense_1_VREF_OPTIONS)
1434:Generated_Source\PSoC5/CapSense_1.c ****                 CapSense_1_AMuxCH0_Disconnect(CapSense_1_AMuxCH0_VREF_CHANNEL);
1435:Generated_Source\PSoC5/CapSense_1.c ****             #else
1436:Generated_Source\PSoC5/CapSense_1.c ****                 CapSense_1_BufCH0_CAPS_CFG0_REG &= ~CapSense_1_CSBUF_ENABLE;
1437:Generated_Source\PSoC5/CapSense_1.c ****             #endif  /* (CapSense_1_VREF_VDAC != CapSense_1_VREF_OPTIONS) */
1438:Generated_Source\PSoC5/CapSense_1.c **** 
1439:Generated_Source\PSoC5/CapSense_1.c ****             /* Enable Sensor */
1440:Generated_Source\PSoC5/CapSense_1.c ****             CapSense_1_EnableScanSlot(sensor);
1441:Generated_Source\PSoC5/CapSense_1.c ****             
1442:Generated_Source\PSoC5/CapSense_1.c ****         #elif (CapSense_1_CURRENT_SOURCE == CapSense_1_IDAC_SINK)
1443:Generated_Source\PSoC5/CapSense_1.c ****             /* Connect IDAC */
1444:Generated_Source\PSoC5/CapSense_1.c ****             CapSense_1_AMuxCH0_Connect(CapSense_1_AMuxCH0_IDAC_CHANNEL);
1445:Generated_Source\PSoC5/CapSense_1.c ****             
1446:Generated_Source\PSoC5/CapSense_1.c ****             /* Enable Sensor */
1447:Generated_Source\PSoC5/CapSense_1.c ****             CapSense_1_EnableScanSlot(sensor);
1448:Generated_Source\PSoC5/CapSense_1.c ****                 
1449:Generated_Source\PSoC5/CapSense_1.c ****             /* Disable CapSense Buffer */
1450:Generated_Source\PSoC5/CapSense_1.c ****             CapSense_1_BufCH0_CAPS_CFG0_REG &= (uint8)~CapSense_1_CSBUF_ENABLE;
1451:Generated_Source\PSoC5/CapSense_1.c ****             
1452:Generated_Source\PSoC5/CapSense_1.c ****         #else
1453:Generated_Source\PSoC5/CapSense_1.c ****             /* Connect DSI output to Rb */
1454:Generated_Source\PSoC5/CapSense_1.c ****             *CapSense_1_rbTable[CapSense_1_extRbCh0Cur] |= CapSense_1_BYP_MASK;
1455:Generated_Source\PSoC5/CapSense_1.c ****             
1456:Generated_Source\PSoC5/CapSense_1.c ****             /* Enable Sensor */
1457:Generated_Source\PSoC5/CapSense_1.c ****             CapSense_1_EnableScanSlot(sensor);
1458:Generated_Source\PSoC5/CapSense_1.c ****              
1459:Generated_Source\PSoC5/CapSense_1.c ****             /* Disable CapSense Buffer */
1460:Generated_Source\PSoC5/CapSense_1.c ****             CapSense_1_BufCH0_CAPS_CFG0_REG &= ~CapSense_1_CSBUF_ENABLE;
1461:Generated_Source\PSoC5/CapSense_1.c ****         
1462:Generated_Source\PSoC5/CapSense_1.c ****         #endif  /* (CapSense_1_CURRENT_SOURCE == CapSense_1_IDAC_SOURCE) */
1463:Generated_Source\PSoC5/CapSense_1.c ****         
1464:Generated_Source\PSoC5/CapSense_1.c ****     #else
1465:Generated_Source\PSoC5/CapSense_1.c **** 
1466:Generated_Source\PSoC5/CapSense_1.c ****         if((CapSense_1_CONTROL_REG & CapSense_1_CTRL_WINDOW_EN__CH0) != 0u)
1467:Generated_Source\PSoC5/CapSense_1.c ****         {
1468:Generated_Source\PSoC5/CapSense_1.c ****             #if (CapSense_1_CURRENT_SOURCE == CapSense_1_IDAC_SOURCE)
1469:Generated_Source\PSoC5/CapSense_1.c ****                 /* Disable Vref from AMux */
1470:Generated_Source\PSoC5/CapSense_1.c ****                 #if (CapSense_1_VREF_VDAC == CapSense_1_VREF_OPTIONS)
1471:Generated_Source\PSoC5/CapSense_1.c ****                     CapSense_1_AMuxCH0_Disconnect(CapSense_1_AMuxCH0_VREF_CHANNEL);
1472:Generated_Source\PSoC5/CapSense_1.c ****                 #else
ARM GAS  C:\Users\ash750\AppData\Local\Temp\ccm8BDlp.s 			page 34


1473:Generated_Source\PSoC5/CapSense_1.c ****                     CapSense_1_BufCH0_CAPS_CFG0_REG &= ~CapSense_1_CSBUF_ENABLE;
1474:Generated_Source\PSoC5/CapSense_1.c ****                 #endif  /* (CapSense_1_VREF_VDAC != CapSense_1_VREF_OPTIONS) */
1475:Generated_Source\PSoC5/CapSense_1.c ****                 
1476:Generated_Source\PSoC5/CapSense_1.c ****                 /* Enable Sensor */
1477:Generated_Source\PSoC5/CapSense_1.c ****                 CapSense_1_EnableScanSlot(sensor);
1478:Generated_Source\PSoC5/CapSense_1.c ****                 
1479:Generated_Source\PSoC5/CapSense_1.c ****             #elif (CapSense_1_CURRENT_SOURCE == CapSense_1_IDAC_SINK)
1480:Generated_Source\PSoC5/CapSense_1.c ****                 /* Connect IDAC */
1481:Generated_Source\PSoC5/CapSense_1.c ****                 CapSense_1_AMuxCH0_Connect(CapSense_1_AMuxCH0_IDAC_CHANNEL);
1482:Generated_Source\PSoC5/CapSense_1.c ****                 
1483:Generated_Source\PSoC5/CapSense_1.c ****                 /* Enable Sensor */
1484:Generated_Source\PSoC5/CapSense_1.c ****                 CapSense_1_EnableScanSlot(sensor);
1485:Generated_Source\PSoC5/CapSense_1.c ****                     
1486:Generated_Source\PSoC5/CapSense_1.c ****                 /* Disable Vref from AMux */
1487:Generated_Source\PSoC5/CapSense_1.c ****                 CapSense_1_BufCH0_CAPS_CFG0_REG &= ~CapSense_1_CSBUF_ENABLE;
1488:Generated_Source\PSoC5/CapSense_1.c ****                 
1489:Generated_Source\PSoC5/CapSense_1.c ****             #else
1490:Generated_Source\PSoC5/CapSense_1.c ****                 /* Connect DSI output to Rb */
1491:Generated_Source\PSoC5/CapSense_1.c ****                 *CapSense_1_rbTable[CapSense_1_extRbCh0Cur] |= CapSense_1_BYP_MASK;
1492:Generated_Source\PSoC5/CapSense_1.c ****                 
1493:Generated_Source\PSoC5/CapSense_1.c ****                 /* Enable Sensor */
1494:Generated_Source\PSoC5/CapSense_1.c ****                 CapSense_1_EnableScanSlot(sensor);
1495:Generated_Source\PSoC5/CapSense_1.c ****                     
1496:Generated_Source\PSoC5/CapSense_1.c ****                 /* Disable Vref from AMux */
1497:Generated_Source\PSoC5/CapSense_1.c ****                 CapSense_1_BufCH0_CAPS_CFG0_REG &= ~CapSense_1_CSBUF_ENABLE;
1498:Generated_Source\PSoC5/CapSense_1.c ****             
1499:Generated_Source\PSoC5/CapSense_1.c ****             #endif  /* (CapSense_1_CURRENT_SOURCE == CapSense_1_IDAC_SOURCE) */
1500:Generated_Source\PSoC5/CapSense_1.c ****             
1501:Generated_Source\PSoC5/CapSense_1.c ****         }
1502:Generated_Source\PSoC5/CapSense_1.c ****         
1503:Generated_Source\PSoC5/CapSense_1.c ****         if((CapSense_1_CONTROL_REG & CapSense_1_CTRL_WINDOW_EN__CH1) != 0u)
1504:Generated_Source\PSoC5/CapSense_1.c ****         {
1505:Generated_Source\PSoC5/CapSense_1.c ****             sensor += CapSense_1_TOTAL_SENSOR_COUNT__CH0;
1506:Generated_Source\PSoC5/CapSense_1.c ****             
1507:Generated_Source\PSoC5/CapSense_1.c ****             #if (CapSense_1_CURRENT_SOURCE == CapSense_1_IDAC_SOURCE)
1508:Generated_Source\PSoC5/CapSense_1.c ****                 /* Disable Vref from AMux */
1509:Generated_Source\PSoC5/CapSense_1.c ****                 #if (CapSense_1_VREF_VDAC == CapSense_1_VREF_OPTIONS)
1510:Generated_Source\PSoC5/CapSense_1.c ****                    CapSense_1_AMuxCH1_Disconnect(CapSense_1_AMuxCH1_VREF_CHANNEL);
1511:Generated_Source\PSoC5/CapSense_1.c ****                 #else 
1512:Generated_Source\PSoC5/CapSense_1.c ****                     CapSense_1_BufCH1_CAPS_CFG0_REG &= ~CapSense_1_CSBUF_ENABLE;
1513:Generated_Source\PSoC5/CapSense_1.c ****                 #endif  /* (CapSense_1_VREF_VDAC == CapSense_1_VREF_OPTIONS) */
1514:Generated_Source\PSoC5/CapSense_1.c ****                 
1515:Generated_Source\PSoC5/CapSense_1.c ****                 /* Enable Sensor */
1516:Generated_Source\PSoC5/CapSense_1.c ****                 CapSense_1_EnableScanSlot(sensor);
1517:Generated_Source\PSoC5/CapSense_1.c ****                 
1518:Generated_Source\PSoC5/CapSense_1.c ****             #elif (CapSense_1_CURRENT_SOURCE == CapSense_1_IDAC_SINK)
1519:Generated_Source\PSoC5/CapSense_1.c ****                 /* Connect IDAC */
1520:Generated_Source\PSoC5/CapSense_1.c ****                 CapSense_1_AMuxCH1_Connect(CapSense_1_AMuxCH1_IDAC_CHANNEL);
1521:Generated_Source\PSoC5/CapSense_1.c ****                 
1522:Generated_Source\PSoC5/CapSense_1.c ****                 /* Enable Sensor */
1523:Generated_Source\PSoC5/CapSense_1.c ****                 CapSense_1_EnableScanSlot(sensor);
1524:Generated_Source\PSoC5/CapSense_1.c ****                     
1525:Generated_Source\PSoC5/CapSense_1.c ****                 /* Disable Vref from AMux */
1526:Generated_Source\PSoC5/CapSense_1.c ****                 CapSense_1_BufCH1_CAPS_CFG0_REG &= ~CapSense_1_CSBUF_ENABLE;
1527:Generated_Source\PSoC5/CapSense_1.c ****                 
1528:Generated_Source\PSoC5/CapSense_1.c ****             #else
1529:Generated_Source\PSoC5/CapSense_1.c ****                 /* Connect DSI output to Rb */
ARM GAS  C:\Users\ash750\AppData\Local\Temp\ccm8BDlp.s 			page 35


1530:Generated_Source\PSoC5/CapSense_1.c ****                 *CapSense_1_rbTable[CapSense_1_extRbCh1Cur] |= CapSense_1_BYP_MASK;
1531:Generated_Source\PSoC5/CapSense_1.c ****                 
1532:Generated_Source\PSoC5/CapSense_1.c ****                 /* Enable Sensor */
1533:Generated_Source\PSoC5/CapSense_1.c ****                 CapSense_1_EnableScanSlot(sensor);
1534:Generated_Source\PSoC5/CapSense_1.c ****                 
1535:Generated_Source\PSoC5/CapSense_1.c ****                 /* Disable Vref from AMux */
1536:Generated_Source\PSoC5/CapSense_1.c ****                 CapSense_1_BufCH1_CAPS_CFG0_REG &= ~CapSense_1_CSBUF_ENABLE;
1537:Generated_Source\PSoC5/CapSense_1.c ****             
1538:Generated_Source\PSoC5/CapSense_1.c ****             #endif  /* (CapSense_1_CURRENT_SOURCE == CapSense_1_IDAC_SOURCE) */
1539:Generated_Source\PSoC5/CapSense_1.c ****         }
1540:Generated_Source\PSoC5/CapSense_1.c ****     
1541:Generated_Source\PSoC5/CapSense_1.c ****     #endif  /* (CapSense_1_DESIGN_TYPE == CapSense_1_ONE_CHANNEL_DESIGN) */
1542:Generated_Source\PSoC5/CapSense_1.c ****     
1543:Generated_Source\PSoC5/CapSense_1.c ****     /* Start measurament, pre-charge clocks are running and PRS as well */
1544:Generated_Source\PSoC5/CapSense_1.c ****     CapSense_1_CONTROL_REG |= CapSense_1_CTRL_START;
1545:Generated_Source\PSoC5/CapSense_1.c ****     
1546:Generated_Source\PSoC5/CapSense_1.c ****     /* Place enable interrupts here to eliminate influence on start of scanning */
1547:Generated_Source\PSoC5/CapSense_1.c ****     /* `#START CapSense_1_PreScan_EnableInt` */
1548:Generated_Source\PSoC5/CapSense_1.c **** 
1549:Generated_Source\PSoC5/CapSense_1.c ****     /* `#END` */
1550:Generated_Source\PSoC5/CapSense_1.c **** 
1551:Generated_Source\PSoC5/CapSense_1.c ****     #ifdef CapSense_1_PRE_SCAN_ENABLE_INT_CALLBACK
1552:Generated_Source\PSoC5/CapSense_1.c ****         CapSense_1_PreScan_EnableInt_Callback();
1553:Generated_Source\PSoC5/CapSense_1.c ****     #endif /* CapSense_1_PRE_SCAN_ENABLE_INT_CALLBACK */
1554:Generated_Source\PSoC5/CapSense_1.c **** }
1555:Generated_Source\PSoC5/CapSense_1.c **** 
1556:Generated_Source\PSoC5/CapSense_1.c **** 
1557:Generated_Source\PSoC5/CapSense_1.c **** #if (CapSense_1_DESIGN_TYPE == CapSense_1_ONE_CHANNEL_DESIGN)
1558:Generated_Source\PSoC5/CapSense_1.c ****     /*******************************************************************************
1559:Generated_Source\PSoC5/CapSense_1.c ****     * Function Name: CapSense_1_PostScan
1560:Generated_Source\PSoC5/CapSense_1.c ****     ********************************************************************************
1561:Generated_Source\PSoC5/CapSense_1.c ****     *
1562:Generated_Source\PSoC5/CapSense_1.c ****     * Summary:
1563:Generated_Source\PSoC5/CapSense_1.c ****     *  Store results of measurament in CapSense_1_SensorResult[] array,
1564:Generated_Source\PSoC5/CapSense_1.c ****     *  sets scan sensor in none sampling state, turn off Idac(Current Source IDAC),
1565:Generated_Source\PSoC5/CapSense_1.c ****     *  disconnect IDAC(Sink mode) or bleed resistor (Rb) and apply Vref on AMUX.
1566:Generated_Source\PSoC5/CapSense_1.c ****     *  Only one channel designs.
1567:Generated_Source\PSoC5/CapSense_1.c ****     *
1568:Generated_Source\PSoC5/CapSense_1.c ****     * Parameters:
1569:Generated_Source\PSoC5/CapSense_1.c ****     *  sensor:  Sensor number.
1570:Generated_Source\PSoC5/CapSense_1.c ****     *
1571:Generated_Source\PSoC5/CapSense_1.c ****     * Return:
1572:Generated_Source\PSoC5/CapSense_1.c ****     *  None
1573:Generated_Source\PSoC5/CapSense_1.c ****     *
1574:Generated_Source\PSoC5/CapSense_1.c ****     * Global Variables:
1575:Generated_Source\PSoC5/CapSense_1.c ****     *  CapSense_1_sensorRaw[] - used to store sensors raw data.
1576:Generated_Source\PSoC5/CapSense_1.c ****     *
1577:Generated_Source\PSoC5/CapSense_1.c ****     * Reentrant:
1578:Generated_Source\PSoC5/CapSense_1.c ****     *  No
1579:Generated_Source\PSoC5/CapSense_1.c ****     *
1580:Generated_Source\PSoC5/CapSense_1.c ****     *******************************************************************************/
1581:Generated_Source\PSoC5/CapSense_1.c ****     void CapSense_1_PostScan(uint8 sensor) CYREENTRANT
1582:Generated_Source\PSoC5/CapSense_1.c ****     {
 392              		.loc 1 1582 0
 393              		.cfi_startproc
 394              		@ args = 0, pretend = 0, frame = 0
 395              		@ frame_needed = 0, uses_anonymous_args = 0
ARM GAS  C:\Users\ash750\AppData\Local\Temp\ccm8BDlp.s 			page 36


 396              	.LVL28:
 397 0000 10B5     		push	{r4, lr}
 398              		.cfi_def_cfa_offset 8
 399              		.cfi_offset 4, -8
 400              		.cfi_offset 14, -4
1583:Generated_Source\PSoC5/CapSense_1.c ****         /* Stop Capsensing and rearm sync */
1584:Generated_Source\PSoC5/CapSense_1.c ****         CapSense_1_CONTROL_REG &= (uint8)~(CapSense_1_CTRL_START | CapSense_1_CTRL_SYNC_EN);
 401              		.loc 1 1584 0
 402 0002 0E4A     		ldr	r2, .L34
 403 0004 1378     		ldrb	r3, [r2]	@ zero_extendqisi2
 404 0006 03F0FC03 		and	r3, r3, #252
 405 000a 1370     		strb	r3, [r2]
1585:Generated_Source\PSoC5/CapSense_1.c ****         
1586:Generated_Source\PSoC5/CapSense_1.c ****         /* Read SlotResult from Raw Counter */
1587:Generated_Source\PSoC5/CapSense_1.c ****         #if (CapSense_1_IMPLEMENTATION_CH0 == CapSense_1_MEASURE_IMPLEMENTATION_FF)
1588:Generated_Source\PSoC5/CapSense_1.c ****             CapSense_1_sensorRaw[sensor]  = CapSense_1_MEASURE_FULL_RANGE - 
1589:Generated_Source\PSoC5/CapSense_1.c ****                                                       CY_GET_REG16(CapSense_1_RAW_CH0_COUNTER_PTR);
1590:Generated_Source\PSoC5/CapSense_1.c ****         #else
1591:Generated_Source\PSoC5/CapSense_1.c ****             CapSense_1_sensorRaw[sensor]  = ((uint16) CapSense_1_RAW_CH0_COUNTER_HI_REG << 8u);
 406              		.loc 1 1591 0
 407 000c 0C4B     		ldr	r3, .L34+4
 408 000e 1B78     		ldrb	r3, [r3]	@ zero_extendqisi2
 409 0010 1B02     		lsls	r3, r3, #8
 410 0012 0C49     		ldr	r1, .L34+8
 411 0014 21F81030 		strh	r3, [r1, r0, lsl #1]	@ movhi
1592:Generated_Source\PSoC5/CapSense_1.c ****             CapSense_1_sensorRaw[sensor] |= (uint16) CapSense_1_RAW_CH0_COUNTER_LO_REG;
 412              		.loc 1 1592 0
 413 0018 723A     		subs	r2, r2, #114
 414 001a 1278     		ldrb	r2, [r2]	@ zero_extendqisi2
 415 001c 1343     		orrs	r3, r3, r2
1593:Generated_Source\PSoC5/CapSense_1.c ****             CapSense_1_sensorRaw[sensor]  = CapSense_1_MEASURE_FULL_RANGE -
 416              		.loc 1 1593 0
 417 001e DB43     		mvns	r3, r3
 418 0020 21F81030 		strh	r3, [r1, r0, lsl #1]	@ movhi
1594:Generated_Source\PSoC5/CapSense_1.c ****                                                       CapSense_1_sensorRaw[sensor];
1595:Generated_Source\PSoC5/CapSense_1.c ****         #endif  /* (CapSense_1_IMPLEMENTATION == CapSense_1_MEASURE_IMPLEMENTATION_FF) */
1596:Generated_Source\PSoC5/CapSense_1.c ****         
1597:Generated_Source\PSoC5/CapSense_1.c ****         /* Disable Sensor */
1598:Generated_Source\PSoC5/CapSense_1.c ****         CapSense_1_DisableScanSlot(sensor);
 419              		.loc 1 1598 0
 420 0024 FFF7FEFF 		bl	CapSense_1_DisableSensor
 421              	.LVL29:
1599:Generated_Source\PSoC5/CapSense_1.c ****         
1600:Generated_Source\PSoC5/CapSense_1.c ****         #if(CapSense_1_CURRENT_SOURCE)
1601:Generated_Source\PSoC5/CapSense_1.c ****             /* Turn off IDAC */
1602:Generated_Source\PSoC5/CapSense_1.c ****             CapSense_1_IdacCH0_SetValue(CapSense_1_TURN_OFF_IDAC);
 422              		.loc 1 1602 0
 423 0028 0020     		movs	r0, #0
 424 002a FFF7FEFF 		bl	CapSense_1_IdacCH0_SetValue
 425              	.LVL30:
1603:Generated_Source\PSoC5/CapSense_1.c ****             #if (CapSense_1_CURRENT_SOURCE == CapSense_1_IDAC_SINK)
1604:Generated_Source\PSoC5/CapSense_1.c ****                 /* Disconnect IDAC */
1605:Generated_Source\PSoC5/CapSense_1.c ****                 CapSense_1_AMuxCH0_Disconnect(CapSense_1_AMuxCH0_IDAC_CHANNEL);
1606:Generated_Source\PSoC5/CapSense_1.c ****             #endif  /* (CapSense_1_CURRENT_SOURCE == CapSense_1_IDAC_SINK) */
1607:Generated_Source\PSoC5/CapSense_1.c ****         #else
1608:Generated_Source\PSoC5/CapSense_1.c ****             /* Disconnect DSI output from Rb */
1609:Generated_Source\PSoC5/CapSense_1.c ****             *CapSense_1_rbTable[CapSense_1_extRbCh0Cur] &= ~CapSense_1_BYP_MASK; 
ARM GAS  C:\Users\ash750\AppData\Local\Temp\ccm8BDlp.s 			page 37


1610:Generated_Source\PSoC5/CapSense_1.c ****         #endif  /* (CapSense_1_CURRENT_SOURCE)*/
1611:Generated_Source\PSoC5/CapSense_1.c ****             
1612:Generated_Source\PSoC5/CapSense_1.c ****         /* Enable Vref on AMUX */
1613:Generated_Source\PSoC5/CapSense_1.c ****         #if (CapSense_1_VREF_OPTIONS == CapSense_1_VREF_VDAC)
1614:Generated_Source\PSoC5/CapSense_1.c ****             CapSense_1_AMuxCH0_Connect(CapSense_1_AMuxCH0_VREF_CHANNEL);
1615:Generated_Source\PSoC5/CapSense_1.c ****         #else
1616:Generated_Source\PSoC5/CapSense_1.c ****             CapSense_1_BufCH0_CAPS_CFG0_REG |= CapSense_1_CSBUF_ENABLE;
 426              		.loc 1 1616 0
 427 002e 064A     		ldr	r2, .L34+12
 428 0030 1378     		ldrb	r3, [r2]	@ zero_extendqisi2
 429 0032 43F00103 		orr	r3, r3, #1
 430 0036 1370     		strb	r3, [r2]
 431 0038 10BD     		pop	{r4, pc}
 432              	.L35:
 433 003a 00BF     		.align	2
 434              	.L34:
 435 003c 76640040 		.word	1073767542
 436 0040 14640040 		.word	1073767444
 437 0044 00000000 		.word	CapSense_1_sensorRaw
 438 0048 72580040 		.word	1073764466
 439              		.cfi_endproc
 440              	.LFE14:
 441              		.size	CapSense_1_PostScan, .-CapSense_1_PostScan
 442              		.section	.text.CapSense_1_SetPrescaler,"ax",%progbits
 443              		.align	2
 444              		.global	CapSense_1_SetPrescaler
 445              		.thumb
 446              		.thumb_func
 447              		.type	CapSense_1_SetPrescaler, %function
 448              	CapSense_1_SetPrescaler:
 449              	.LFB15:
1617:Generated_Source\PSoC5/CapSense_1.c ****         #endif  /* (CapSense_1_VREF_VDAC == CapSense_1_VREF_OPTIONS) */
1618:Generated_Source\PSoC5/CapSense_1.c ****     }
1619:Generated_Source\PSoC5/CapSense_1.c ****     
1620:Generated_Source\PSoC5/CapSense_1.c **** #else
1621:Generated_Source\PSoC5/CapSense_1.c **** 
1622:Generated_Source\PSoC5/CapSense_1.c ****     /*******************************************************************************
1623:Generated_Source\PSoC5/CapSense_1.c ****     * Function Name: CapSense_1_PostScan
1624:Generated_Source\PSoC5/CapSense_1.c ****     ********************************************************************************
1625:Generated_Source\PSoC5/CapSense_1.c ****     *
1626:Generated_Source\PSoC5/CapSense_1.c ****     * Summary:
1627:Generated_Source\PSoC5/CapSense_1.c ****     *  Store results of measurament in CapSense_1_SensorResult[] array,
1628:Generated_Source\PSoC5/CapSense_1.c ****     *  sets scan sensor in none sampling state, turn off Idac(Current Source IDAC),
1629:Generated_Source\PSoC5/CapSense_1.c ****     *  disconnect IDAC(Sink mode) or bleed resistor (Rb) and apply Vref on AMUX.
1630:Generated_Source\PSoC5/CapSense_1.c ****     *  Only used for channel 0 in two channes designs.
1631:Generated_Source\PSoC5/CapSense_1.c ****     *
1632:Generated_Source\PSoC5/CapSense_1.c ****     * Parameters:
1633:Generated_Source\PSoC5/CapSense_1.c ****     *  sensor:  Sensor number.
1634:Generated_Source\PSoC5/CapSense_1.c ****     *
1635:Generated_Source\PSoC5/CapSense_1.c ****     * Return:
1636:Generated_Source\PSoC5/CapSense_1.c ****     *  None
1637:Generated_Source\PSoC5/CapSense_1.c ****     *
1638:Generated_Source\PSoC5/CapSense_1.c ****     * Global Variables:
1639:Generated_Source\PSoC5/CapSense_1.c ****     *  CapSense_1_sensorRaw[] - used to store sensors raw data.
1640:Generated_Source\PSoC5/CapSense_1.c ****     *
1641:Generated_Source\PSoC5/CapSense_1.c ****     * Reentrant:
1642:Generated_Source\PSoC5/CapSense_1.c ****     *  No
ARM GAS  C:\Users\ash750\AppData\Local\Temp\ccm8BDlp.s 			page 38


1643:Generated_Source\PSoC5/CapSense_1.c ****     *
1644:Generated_Source\PSoC5/CapSense_1.c ****     *******************************************************************************/
1645:Generated_Source\PSoC5/CapSense_1.c ****     void CapSense_1_PostScanCh0(uint8 sensor) CYREENTRANT
1646:Generated_Source\PSoC5/CapSense_1.c ****     {
1647:Generated_Source\PSoC5/CapSense_1.c ****         if (((CapSense_1_CONTROL_REG & CapSense_1_CTRL_WINDOW_EN__CH0) == 0u) && 
1648:Generated_Source\PSoC5/CapSense_1.c ****             ((CapSense_1_CONTROL_REG & CapSense_1_CTRL_WINDOW_EN__CH1) == 0u)) 
1649:Generated_Source\PSoC5/CapSense_1.c ****         {
1650:Generated_Source\PSoC5/CapSense_1.c ****             /* Stop Capsensing and rearm sync */
1651:Generated_Source\PSoC5/CapSense_1.c ****             CapSense_1_CONTROL_REG &= ~(CapSense_1_CTRL_START | CapSense_1_CTRL_SYNC_EN);
1652:Generated_Source\PSoC5/CapSense_1.c ****         }
1653:Generated_Source\PSoC5/CapSense_1.c ****         
1654:Generated_Source\PSoC5/CapSense_1.c ****         /* Read SlotResult from Raw Counter */
1655:Generated_Source\PSoC5/CapSense_1.c ****         #if (CapSense_1_IMPLEMENTATION_CH0 == CapSense_1_MEASURE_IMPLEMENTATION_FF)
1656:Generated_Source\PSoC5/CapSense_1.c ****             CapSense_1_sensorRaw[sensor]  = CapSense_1_MEASURE_FULL_RANGE - 
1657:Generated_Source\PSoC5/CapSense_1.c ****                                                       CY_GET_REG16(CapSense_1_RAW_CH0_COUNTER_PTR);
1658:Generated_Source\PSoC5/CapSense_1.c ****         #else
1659:Generated_Source\PSoC5/CapSense_1.c ****             CapSense_1_sensorRaw[sensor]  = ((uint16) CapSense_1_RAW_CH0_COUNTER_HI_REG << 8u);
1660:Generated_Source\PSoC5/CapSense_1.c ****             CapSense_1_sensorRaw[sensor] |= (uint16) CapSense_1_RAW_CH0_COUNTER_LO_REG;
1661:Generated_Source\PSoC5/CapSense_1.c ****             CapSense_1_sensorRaw[sensor]  = CapSense_1_MEASURE_FULL_RANGE - 
1662:Generated_Source\PSoC5/CapSense_1.c ****                                                       CapSense_1_sensorRaw[sensor];
1663:Generated_Source\PSoC5/CapSense_1.c ****         #endif  /* (CapSense_1_IMPLEMENTATION_CH0 == CapSense_1_MEASURE_IMPLEMENTATION_FF)*/
1664:Generated_Source\PSoC5/CapSense_1.c ****         
1665:Generated_Source\PSoC5/CapSense_1.c ****         /* Disable Sensor */
1666:Generated_Source\PSoC5/CapSense_1.c ****         CapSense_1_DisableScanSlot(sensor);
1667:Generated_Source\PSoC5/CapSense_1.c ****         
1668:Generated_Source\PSoC5/CapSense_1.c ****         #if (CapSense_1_CURRENT_SOURCE)
1669:Generated_Source\PSoC5/CapSense_1.c ****             /* Turn off IDAC */
1670:Generated_Source\PSoC5/CapSense_1.c ****             CapSense_1_IdacCH0_SetValue(CapSense_1_TURN_OFF_IDAC);
1671:Generated_Source\PSoC5/CapSense_1.c ****             #if (CapSense_1_CURRENT_SOURCE == CapSense_1_IDAC_SINK)
1672:Generated_Source\PSoC5/CapSense_1.c ****                 /* Disconnect IDAC */
1673:Generated_Source\PSoC5/CapSense_1.c ****                 CapSense_1_AMuxCH0_Disconnect(CapSense_1_AMuxCH0_IDAC_CHANNEL);
1674:Generated_Source\PSoC5/CapSense_1.c ****             #endif  /* (CapSense_1_CURRENT_SOURCE == CapSense_1_IDAC_SINK) */
1675:Generated_Source\PSoC5/CapSense_1.c ****         #else
1676:Generated_Source\PSoC5/CapSense_1.c ****             /* Disconnect DSI output from Rb */
1677:Generated_Source\PSoC5/CapSense_1.c ****             *CapSense_1_rbTable[CapSense_1_extRbCh0Cur] &= ~CapSense_1_BYP_MASK; 
1678:Generated_Source\PSoC5/CapSense_1.c ****         #endif  /* (CapSense_1_CURRENT_SOURCE)*/
1679:Generated_Source\PSoC5/CapSense_1.c ****         
1680:Generated_Source\PSoC5/CapSense_1.c ****         /* Enable Vref on AMUX */
1681:Generated_Source\PSoC5/CapSense_1.c ****         #if (CapSense_1_VREF_OPTIONS == CapSense_1_VREF_VDAC)
1682:Generated_Source\PSoC5/CapSense_1.c ****             CapSense_1_AMuxCH0_Connect(CapSense_1_AMuxCH0_VREF_CHANNEL);
1683:Generated_Source\PSoC5/CapSense_1.c ****         #else
1684:Generated_Source\PSoC5/CapSense_1.c ****             CapSense_1_BufCH0_CAPS_CFG0_REG |= CapSense_1_CSBUF_ENABLE;
1685:Generated_Source\PSoC5/CapSense_1.c ****         #endif  /* (CapSense_1_VREF_VDAC == CapSense_1_VREF_OPTIONS) */
1686:Generated_Source\PSoC5/CapSense_1.c ****     }
1687:Generated_Source\PSoC5/CapSense_1.c ****     
1688:Generated_Source\PSoC5/CapSense_1.c ****     
1689:Generated_Source\PSoC5/CapSense_1.c ****     /*******************************************************************************
1690:Generated_Source\PSoC5/CapSense_1.c ****     * Function Name: CapSense_1_PostScanCh1
1691:Generated_Source\PSoC5/CapSense_1.c ****     ********************************************************************************
1692:Generated_Source\PSoC5/CapSense_1.c ****     *
1693:Generated_Source\PSoC5/CapSense_1.c ****     * Summary:
1694:Generated_Source\PSoC5/CapSense_1.c ****     *  Store results of measurament in CapSense_1_SensorResult[] array,
1695:Generated_Source\PSoC5/CapSense_1.c ****     *  sets scan sensor in none sampling state, turn off Idac(Current Source IDAC), 
1696:Generated_Source\PSoC5/CapSense_1.c ****     *  disconnect IDAC(Sink mode) or bleed resistor (Rb) and apply Vref on AMUX.
1697:Generated_Source\PSoC5/CapSense_1.c ****     *  Only used for channel 1 in two channes designs.
1698:Generated_Source\PSoC5/CapSense_1.c ****     *
1699:Generated_Source\PSoC5/CapSense_1.c ****     * Parameters:
ARM GAS  C:\Users\ash750\AppData\Local\Temp\ccm8BDlp.s 			page 39


1700:Generated_Source\PSoC5/CapSense_1.c ****     *  sensor:  Sensor number.
1701:Generated_Source\PSoC5/CapSense_1.c ****     *
1702:Generated_Source\PSoC5/CapSense_1.c ****     * Return:
1703:Generated_Source\PSoC5/CapSense_1.c ****     *  None
1704:Generated_Source\PSoC5/CapSense_1.c ****     *
1705:Generated_Source\PSoC5/CapSense_1.c ****     * Global Variables:
1706:Generated_Source\PSoC5/CapSense_1.c ****     *  CapSense_1_sensorRaw[] - used to store sensors raw data.
1707:Generated_Source\PSoC5/CapSense_1.c ****     *
1708:Generated_Source\PSoC5/CapSense_1.c ****     * Reentrant:
1709:Generated_Source\PSoC5/CapSense_1.c ****     *  No
1710:Generated_Source\PSoC5/CapSense_1.c ****     *
1711:Generated_Source\PSoC5/CapSense_1.c ****     *******************************************************************************/
1712:Generated_Source\PSoC5/CapSense_1.c ****     void CapSense_1_PostScanCh1(uint8 sensor) CYREENTRANT
1713:Generated_Source\PSoC5/CapSense_1.c ****     {
1714:Generated_Source\PSoC5/CapSense_1.c ****         if (((CapSense_1_CONTROL_REG & CapSense_1_CTRL_WINDOW_EN__CH0) == 0u) && 
1715:Generated_Source\PSoC5/CapSense_1.c ****             ((CapSense_1_CONTROL_REG & CapSense_1_CTRL_WINDOW_EN__CH1) == 0u))
1716:Generated_Source\PSoC5/CapSense_1.c ****         {
1717:Generated_Source\PSoC5/CapSense_1.c ****             /* Stop Capsensing and rearm sync */
1718:Generated_Source\PSoC5/CapSense_1.c ****             CapSense_1_CONTROL_REG &= ~(CapSense_1_CTRL_START | CapSense_1_CTRL_SYNC_EN);
1719:Generated_Source\PSoC5/CapSense_1.c ****         }
1720:Generated_Source\PSoC5/CapSense_1.c ****         
1721:Generated_Source\PSoC5/CapSense_1.c ****         /* Read SlotResult from Raw Counter */
1722:Generated_Source\PSoC5/CapSense_1.c ****         #if (CapSense_1_IMPLEMENTATION_CH1 == CapSense_1_MEASURE_IMPLEMENTATION_FF)
1723:Generated_Source\PSoC5/CapSense_1.c ****             CapSense_1_sensorRaw[sensor]  = CapSense_1_MEASURE_FULL_RANGE - 
1724:Generated_Source\PSoC5/CapSense_1.c ****                                                       CY_GET_REG16(CapSense_1_RAW_CH1_COUNTER_PTR);
1725:Generated_Source\PSoC5/CapSense_1.c ****         #else
1726:Generated_Source\PSoC5/CapSense_1.c ****             CapSense_1_sensorRaw[sensor]  = ((uint16) CapSense_1_RAW_CH1_COUNTER_HI_REG << 8u);
1727:Generated_Source\PSoC5/CapSense_1.c ****             CapSense_1_sensorRaw[sensor] |= (uint16) CapSense_1_RAW_CH1_COUNTER_LO_REG;
1728:Generated_Source\PSoC5/CapSense_1.c ****             CapSense_1_sensorRaw[sensor]  = CapSense_1_MEASURE_FULL_RANGE - 
1729:Generated_Source\PSoC5/CapSense_1.c ****                                                       CapSense_1_sensorRaw[sensor];
1730:Generated_Source\PSoC5/CapSense_1.c ****         #endif  /* (CapSense_1_IMPLEMENTATION_CH1 == CapSense_1_MEASURE_IMPLEMENTATION_FF)*/
1731:Generated_Source\PSoC5/CapSense_1.c ****         
1732:Generated_Source\PSoC5/CapSense_1.c ****         /* Disable Sensor */
1733:Generated_Source\PSoC5/CapSense_1.c ****         CapSense_1_DisableScanSlot(sensor);
1734:Generated_Source\PSoC5/CapSense_1.c ****         
1735:Generated_Source\PSoC5/CapSense_1.c ****         #if (CapSense_1_CURRENT_SOURCE)
1736:Generated_Source\PSoC5/CapSense_1.c ****             /* Turn off IDAC */
1737:Generated_Source\PSoC5/CapSense_1.c ****             CapSense_1_IdacCH1_SetValue(CapSense_1_TURN_OFF_IDAC);
1738:Generated_Source\PSoC5/CapSense_1.c ****             #if (CapSense_1_CURRENT_SOURCE == CapSense_1_IDAC_SINK)
1739:Generated_Source\PSoC5/CapSense_1.c ****                 /* Disconnect IDAC */
1740:Generated_Source\PSoC5/CapSense_1.c ****                 CapSense_1_AMuxCH1_Disconnect(CapSense_1_AMuxCH1_IDAC_CHANNEL);
1741:Generated_Source\PSoC5/CapSense_1.c ****             #endif  /* (CapSense_1_CURRENT_SOURCE == CapSense_1_IDAC_SINK) */
1742:Generated_Source\PSoC5/CapSense_1.c ****         #else
1743:Generated_Source\PSoC5/CapSense_1.c ****             /* Disconnect DSI output from Rb */
1744:Generated_Source\PSoC5/CapSense_1.c ****             *CapSense_1_rbTable[CapSense_1_extRbCh1Cur] &= ~CapSense_1_BYP_MASK; 
1745:Generated_Source\PSoC5/CapSense_1.c ****         #endif  /* (CapSense_1_CURRENT_SOURCE)*/
1746:Generated_Source\PSoC5/CapSense_1.c **** 
1747:Generated_Source\PSoC5/CapSense_1.c ****         /* Enable Vref on AMUX */
1748:Generated_Source\PSoC5/CapSense_1.c ****         #if (CapSense_1_VREF_OPTIONS == CapSense_1_VREF_VDAC)
1749:Generated_Source\PSoC5/CapSense_1.c ****             CapSense_1_AMuxCH1_Connect(CapSense_1_AMuxCH1_VREF_CHANNEL);
1750:Generated_Source\PSoC5/CapSense_1.c ****         #else
1751:Generated_Source\PSoC5/CapSense_1.c ****             CapSense_1_BufCH1_CAPS_CFG0_REG |= CapSense_1_CSBUF_ENABLE;
1752:Generated_Source\PSoC5/CapSense_1.c ****         #endif  /* (CapSense_1_VREF_VDAC == CapSense_1_VREF_OPTIONS) */
1753:Generated_Source\PSoC5/CapSense_1.c ****     }
1754:Generated_Source\PSoC5/CapSense_1.c ****     
1755:Generated_Source\PSoC5/CapSense_1.c **** #endif  /* CapSense_1_DESIGN_TYPE */
1756:Generated_Source\PSoC5/CapSense_1.c **** 
ARM GAS  C:\Users\ash750\AppData\Local\Temp\ccm8BDlp.s 			page 40


1757:Generated_Source\PSoC5/CapSense_1.c **** 
1758:Generated_Source\PSoC5/CapSense_1.c **** #if (CapSense_1_CURRENT_SOURCE == CapSense_1_EXTERNAL_RB)
1759:Generated_Source\PSoC5/CapSense_1.c ****     /*******************************************************************************
1760:Generated_Source\PSoC5/CapSense_1.c ****     * Function Name:  CapSense_1_InitRb
1761:Generated_Source\PSoC5/CapSense_1.c ****     ********************************************************************************
1762:Generated_Source\PSoC5/CapSense_1.c ****     *
1763:Generated_Source\PSoC5/CapSense_1.c ****     * Summary:
1764:Generated_Source\PSoC5/CapSense_1.c ****     *  Sets all Rbleed resistor to High-Z mode. The first Rbleed resistor is active
1765:Generated_Source\PSoC5/CapSense_1.c ****     *  while next measure.
1766:Generated_Source\PSoC5/CapSense_1.c ****     *  This function is available only if Current Source is External Resistor.
1767:Generated_Source\PSoC5/CapSense_1.c ****     *
1768:Generated_Source\PSoC5/CapSense_1.c ****     * Parameters:
1769:Generated_Source\PSoC5/CapSense_1.c ****     *  None
1770:Generated_Source\PSoC5/CapSense_1.c ****     *
1771:Generated_Source\PSoC5/CapSense_1.c ****     * Return:
1772:Generated_Source\PSoC5/CapSense_1.c ****     *  None
1773:Generated_Source\PSoC5/CapSense_1.c ****     *
1774:Generated_Source\PSoC5/CapSense_1.c ****     ********************************************************************************/
1775:Generated_Source\PSoC5/CapSense_1.c ****     void CapSense_1_InitRb(void) 
1776:Generated_Source\PSoC5/CapSense_1.c ****     {
1777:Generated_Source\PSoC5/CapSense_1.c ****         uint8 i;
1778:Generated_Source\PSoC5/CapSense_1.c ****         
1779:Generated_Source\PSoC5/CapSense_1.c ****         /* Disable all Rb */
1780:Generated_Source\PSoC5/CapSense_1.c ****         for(i = 0u; i < CapSense_1_TOTAL_RB_NUMBER; i++)
1781:Generated_Source\PSoC5/CapSense_1.c ****         {
1782:Generated_Source\PSoC5/CapSense_1.c ****             /* Make High-Z */
1783:Generated_Source\PSoC5/CapSense_1.c ****             *CapSense_1_rbTable[i] = CapSense_1_PRT_PC_HIGHZ;
1784:Generated_Source\PSoC5/CapSense_1.c ****         }
1785:Generated_Source\PSoC5/CapSense_1.c ****     }
1786:Generated_Source\PSoC5/CapSense_1.c ****     
1787:Generated_Source\PSoC5/CapSense_1.c ****     
1788:Generated_Source\PSoC5/CapSense_1.c ****     /*******************************************************************************
1789:Generated_Source\PSoC5/CapSense_1.c ****     * Function Name: CapSense_1_SetRBleed
1790:Generated_Source\PSoC5/CapSense_1.c ****     ********************************************************************************
1791:Generated_Source\PSoC5/CapSense_1.c ****     *
1792:Generated_Source\PSoC5/CapSense_1.c ****     * Summary:
1793:Generated_Source\PSoC5/CapSense_1.c ****     *  Sets the pin to use for the bleed resistor (Rb) connection. This function
1794:Generated_Source\PSoC5/CapSense_1.c ****     *  can be called at runtime to select the current Rb pin setting from those 
1795:Generated_Source\PSoC5/CapSense_1.c ****     *  defined customizer. The function overwrites the component parameter setting. 
1796:Generated_Source\PSoC5/CapSense_1.c ****     *  This function is available only if Current Source is External Resistor.
1797:Generated_Source\PSoC5/CapSense_1.c ****     * 
1798:Generated_Source\PSoC5/CapSense_1.c ****     * Parameters:
1799:Generated_Source\PSoC5/CapSense_1.c ****     *  rbleed:  Ordering number for bleed resistor terminal defined in CapSense
1800:Generated_Source\PSoC5/CapSense_1.c ****     *  customizer.
1801:Generated_Source\PSoC5/CapSense_1.c ****     *
1802:Generated_Source\PSoC5/CapSense_1.c ****     * Return:
1803:Generated_Source\PSoC5/CapSense_1.c ****     *  None
1804:Generated_Source\PSoC5/CapSense_1.c ****     *
1805:Generated_Source\PSoC5/CapSense_1.c ****     * Global Variables:
1806:Generated_Source\PSoC5/CapSense_1.c ****     *  CapSense_1_extRbCh0Cur - used to store current number of active 
1807:Generated_Source\PSoC5/CapSense_1.c ****     *  bleed resistor (Rb) of channel 0.
1808:Generated_Source\PSoC5/CapSense_1.c ****     *  CapSense_1_extRbCh1Cur - used to store current number of active 
1809:Generated_Source\PSoC5/CapSense_1.c ****     *  bleed resistor (Rb) of channel 1.
1810:Generated_Source\PSoC5/CapSense_1.c ****     *  The active bleed resistor (Rb) pin will be used while next measurement  
1811:Generated_Source\PSoC5/CapSense_1.c ****     *  cycle.
1812:Generated_Source\PSoC5/CapSense_1.c ****     *
1813:Generated_Source\PSoC5/CapSense_1.c ****     * Reentrant:
ARM GAS  C:\Users\ash750\AppData\Local\Temp\ccm8BDlp.s 			page 41


1814:Generated_Source\PSoC5/CapSense_1.c ****     *  No
1815:Generated_Source\PSoC5/CapSense_1.c ****     *
1816:Generated_Source\PSoC5/CapSense_1.c ****     *******************************************************************************/
1817:Generated_Source\PSoC5/CapSense_1.c ****     void CapSense_1_SetRBleed(uint8 rbleed) 
1818:Generated_Source\PSoC5/CapSense_1.c ****     {
1819:Generated_Source\PSoC5/CapSense_1.c ****         #if (CapSense_1_DESIGN_TYPE == CapSense_1_ONE_CHANNEL_DESIGN)
1820:Generated_Source\PSoC5/CapSense_1.c ****             CapSense_1_extRbCh0Cur = rbleed;
1821:Generated_Source\PSoC5/CapSense_1.c ****             
1822:Generated_Source\PSoC5/CapSense_1.c ****         #else
1823:Generated_Source\PSoC5/CapSense_1.c ****             if(rbleed < CapSense_1_TOTAL_RB_NUMBER__CH0)
1824:Generated_Source\PSoC5/CapSense_1.c ****             {
1825:Generated_Source\PSoC5/CapSense_1.c ****                 CapSense_1_extRbCh0Cur = rbleed;
1826:Generated_Source\PSoC5/CapSense_1.c ****             }
1827:Generated_Source\PSoC5/CapSense_1.c ****             else
1828:Generated_Source\PSoC5/CapSense_1.c ****             {
1829:Generated_Source\PSoC5/CapSense_1.c ****                 CapSense_1_extRbCh1Cur = (rbleed - CapSense_1_TOTAL_RB_NUMBER__CH0);   
1830:Generated_Source\PSoC5/CapSense_1.c ****             }
1831:Generated_Source\PSoC5/CapSense_1.c ****     
1832:Generated_Source\PSoC5/CapSense_1.c ****         #endif  /* CapSense_1_DESIGN_TYPE == CapSense_1_ONE_CHANNEL_DESIGN */ 
1833:Generated_Source\PSoC5/CapSense_1.c ****     }
1834:Generated_Source\PSoC5/CapSense_1.c **** #endif /* CapSense_1_CURRENT_SOURCE == CapSense_1_EXTERNAL_RB */ 
1835:Generated_Source\PSoC5/CapSense_1.c **** 
1836:Generated_Source\PSoC5/CapSense_1.c **** #if (CapSense_1_PRESCALER_OPTIONS)
1837:Generated_Source\PSoC5/CapSense_1.c ****     /*******************************************************************************
1838:Generated_Source\PSoC5/CapSense_1.c ****     * Function Name: CapSense_1_SetPrescaler
1839:Generated_Source\PSoC5/CapSense_1.c ****     ********************************************************************************
1840:Generated_Source\PSoC5/CapSense_1.c ****     *
1841:Generated_Source\PSoC5/CapSense_1.c ****     * Summary:
1842:Generated_Source\PSoC5/CapSense_1.c ****     *  Sets analog switch divider.
1843:Generated_Source\PSoC5/CapSense_1.c ****     *
1844:Generated_Source\PSoC5/CapSense_1.c ****     * Parameters:
1845:Generated_Source\PSoC5/CapSense_1.c ****     *  prescaler:  Sets prescaler divider values.
1846:Generated_Source\PSoC5/CapSense_1.c ****     *
1847:Generated_Source\PSoC5/CapSense_1.c ****     * Return:
1848:Generated_Source\PSoC5/CapSense_1.c ****     *  None
1849:Generated_Source\PSoC5/CapSense_1.c ****     *
1850:Generated_Source\PSoC5/CapSense_1.c ****     *******************************************************************************/
1851:Generated_Source\PSoC5/CapSense_1.c ****     void CapSense_1_SetPrescaler(uint8 prescaler) CYREENTRANT
1852:Generated_Source\PSoC5/CapSense_1.c ****     {
 450              		.loc 1 1852 0
 451              		.cfi_startproc
 452              		@ args = 0, pretend = 0, frame = 0
 453              		@ frame_needed = 0, uses_anonymous_args = 0
 454              		@ link register save eliminated.
 455              	.LVL31:
1853:Generated_Source\PSoC5/CapSense_1.c ****         /* Set Prescaler */
1854:Generated_Source\PSoC5/CapSense_1.c ****         #if (CapSense_1_PRESCALER_OPTIONS == CapSense_1_PRESCALER_UDB)
1855:Generated_Source\PSoC5/CapSense_1.c ****             CapSense_1_PRESCALER_PERIOD_REG = prescaler;
 456              		.loc 1 1855 0
 457 0000 024B     		ldr	r3, .L37
 458 0002 1870     		strb	r0, [r3]
1856:Generated_Source\PSoC5/CapSense_1.c ****             CapSense_1_PRESCALER_COMPARE_REG = (prescaler >> 1u);
 459              		.loc 1 1856 0
 460 0004 4008     		lsrs	r0, r0, #1
 461              	.LVL32:
 462 0006 1033     		adds	r3, r3, #16
 463              	.LVL33:
ARM GAS  C:\Users\ash750\AppData\Local\Temp\ccm8BDlp.s 			page 42


 464 0008 1870     		strb	r0, [r3]
 465              	.LVL34:
 466 000a 7047     		bx	lr
 467              	.L38:
 468              		.align	2
 469              	.L37:
 470 000c 25640040 		.word	1073767461
 471              		.cfi_endproc
 472              	.LFE15:
 473              		.size	CapSense_1_SetPrescaler, .-CapSense_1_SetPrescaler
 474              		.section	.text.CapSense_1_SetScanSlotSettings,"ax",%progbits
 475              		.align	2
 476              		.global	CapSense_1_SetScanSlotSettings
 477              		.thumb
 478              		.thumb_func
 479              		.type	CapSense_1_SetScanSlotSettings, %function
 480              	CapSense_1_SetScanSlotSettings:
 481              	.LFB5:
 807:Generated_Source\PSoC5/CapSense_1.c ****     uint8 widget;
 482              		.loc 1 807 0
 483              		.cfi_startproc
 484              		@ args = 0, pretend = 0, frame = 0
 485              		@ frame_needed = 0, uses_anonymous_args = 0
 486              	.LVL35:
 487 0000 10B5     		push	{r4, lr}
 488              		.cfi_def_cfa_offset 8
 489              		.cfi_offset 4, -8
 490              		.cfi_offset 14, -4
 491 0002 0446     		mov	r4, r0
 492              	.LVL36:
 816:Generated_Source\PSoC5/CapSense_1.c ****         #endif  /* CapSense_1_CURRENT_SOURCE */
 493              		.loc 1 816 0
 494 0004 C820     		movs	r0, #200
 495              	.LVL37:
 496 0006 FFF7FEFF 		bl	CapSense_1_IdacCH0_SetValue
 497              	.LVL38:
 824:Generated_Source\PSoC5/CapSense_1.c ****         #endif  /* (CapSense_1_IMPLEMENTATION_CH0 == CapSense_1_MEASURE_IMPLEMENTATION_FF) */ 
 498              		.loc 1 824 0
 499 000a 0322     		movs	r2, #3
 500 000c 034B     		ldr	r3, .L41
 501 000e 1A70     		strb	r2, [r3]
 829:Generated_Source\PSoC5/CapSense_1.c ****         #elif (CapSense_1_PRESCALER_OPTIONS)
 502              		.loc 1 829 0
 503 0010 034B     		ldr	r3, .L41+4
 504 0012 1C44     		add	r4, r4, r3
 505 0014 2079     		ldrb	r0, [r4, #4]	@ zero_extendqisi2
 506 0016 FFF7FEFF 		bl	CapSense_1_SetPrescaler
 507              	.LVL39:
 508 001a 10BD     		pop	{r4, pc}
 509              	.L42:
 510              		.align	2
 511              	.L41:
 512 001c 56650040 		.word	1073767766
 513 0020 00000000 		.word	.LANCHOR0
 514              		.cfi_endproc
 515              	.LFE5:
 516              		.size	CapSense_1_SetScanSlotSettings, .-CapSense_1_SetScanSlotSettings
ARM GAS  C:\Users\ash750\AppData\Local\Temp\ccm8BDlp.s 			page 43


 517              		.section	.text.CapSense_1_PreScan,"ax",%progbits
 518              		.align	2
 519              		.global	CapSense_1_PreScan
 520              		.thumb
 521              		.thumb_func
 522              		.type	CapSense_1_PreScan, %function
 523              	CapSense_1_PreScan:
 524              	.LFB13:
1414:Generated_Source\PSoC5/CapSense_1.c ****     /* Set Sensor Settings */
 525              		.loc 1 1414 0
 526              		.cfi_startproc
 527              		@ args = 0, pretend = 0, frame = 0
 528              		@ frame_needed = 0, uses_anonymous_args = 0
 529              	.LVL40:
 530 0000 38B5     		push	{r3, r4, r5, lr}
 531              		.cfi_def_cfa_offset 16
 532              		.cfi_offset 3, -16
 533              		.cfi_offset 4, -12
 534              		.cfi_offset 5, -8
 535              		.cfi_offset 14, -4
 536 0002 0546     		mov	r5, r0
1416:Generated_Source\PSoC5/CapSense_1.c ****     
 537              		.loc 1 1416 0
 538 0004 FFF7FEFF 		bl	CapSense_1_SetScanSlotSettings
 539              	.LVL41:
1428:Generated_Source\PSoC5/CapSense_1.c ****         
 540              		.loc 1 1428 0
 541 0008 084C     		ldr	r4, .L45
 542 000a 2378     		ldrb	r3, [r4]	@ zero_extendqisi2
 543 000c 43F00103 		orr	r3, r3, #1
 544 0010 2370     		strb	r3, [r4]
1436:Generated_Source\PSoC5/CapSense_1.c ****             #endif  /* (CapSense_1_VREF_VDAC != CapSense_1_VREF_OPTIONS) */
 545              		.loc 1 1436 0
 546 0012 074A     		ldr	r2, .L45+4
 547 0014 1378     		ldrb	r3, [r2]	@ zero_extendqisi2
 548 0016 03F0FE03 		and	r3, r3, #254
 549 001a 1370     		strb	r3, [r2]
1440:Generated_Source\PSoC5/CapSense_1.c ****             
 550              		.loc 1 1440 0
 551 001c 2846     		mov	r0, r5
 552 001e FFF7FEFF 		bl	CapSense_1_EnableSensor
 553              	.LVL42:
1544:Generated_Source\PSoC5/CapSense_1.c ****     
 554              		.loc 1 1544 0
 555 0022 2378     		ldrb	r3, [r4]	@ zero_extendqisi2
 556 0024 43F00203 		orr	r3, r3, #2
 557 0028 2370     		strb	r3, [r4]
 558 002a 38BD     		pop	{r3, r4, r5, pc}
 559              	.L46:
 560              		.align	2
 561              	.L45:
 562 002c 76640040 		.word	1073767542
 563 0030 72580040 		.word	1073764466
 564              		.cfi_endproc
 565              	.LFE13:
 566              		.size	CapSense_1_PreScan, .-CapSense_1_PreScan
 567              		.section	.text.CapSense_1_ScanSensor,"ax",%progbits
ARM GAS  C:\Users\ash750\AppData\Local\Temp\ccm8BDlp.s 			page 44


 568              		.align	2
 569              		.global	CapSense_1_ScanSensor
 570              		.thumb
 571              		.thumb_func
 572              		.type	CapSense_1_ScanSensor, %function
 573              	CapSense_1_ScanSensor:
 574              	.LFB6:
 919:Generated_Source\PSoC5/CapSense_1.c ****     /* Clears status/control variable and set sensorIndex */
 575              		.loc 1 919 0
 576              		.cfi_startproc
 577              		@ args = 0, pretend = 0, frame = 0
 578              		@ frame_needed = 0, uses_anonymous_args = 0
 579              	.LVL43:
 580 0000 08B5     		push	{r3, lr}
 581              		.cfi_def_cfa_offset 8
 582              		.cfi_offset 3, -8
 583              		.cfi_offset 14, -4
 921:Generated_Source\PSoC5/CapSense_1.c ****     CapSense_1_sensorIndex = sensor;
 584              		.loc 1 921 0
 585 0002 054B     		ldr	r3, .L49
 586 0004 0022     		movs	r2, #0
 587 0006 1A70     		strb	r2, [r3]
 922:Generated_Source\PSoC5/CapSense_1.c ****     
 588              		.loc 1 922 0
 589 0008 044A     		ldr	r2, .L49+4
 590 000a 1070     		strb	r0, [r2]
 926:Generated_Source\PSoC5/CapSense_1.c ****         CapSense_1_PreScan(sensor);
 591              		.loc 1 926 0
 592 000c 8122     		movs	r2, #129
 593 000e 1A70     		strb	r2, [r3]
 927:Generated_Source\PSoC5/CapSense_1.c ****         
 594              		.loc 1 927 0
 595 0010 FFF7FEFF 		bl	CapSense_1_PreScan
 596              	.LVL44:
 597 0014 08BD     		pop	{r3, pc}
 598              	.L50:
 599 0016 00BF     		.align	2
 600              	.L49:
 601 0018 00000000 		.word	CapSense_1_csv
 602 001c 00000000 		.word	CapSense_1_sensorIndex
 603              		.cfi_endproc
 604              	.LFE6:
 605              		.size	CapSense_1_ScanSensor, .-CapSense_1_ScanSensor
 606              		.section	.text.CapSense_1_ScanEnabledWidgets,"ax",%progbits
 607              		.align	2
 608              		.global	CapSense_1_ScanEnabledWidgets
 609              		.thumb
 610              		.thumb_func
 611              		.type	CapSense_1_ScanEnabledWidgets, %function
 612              	CapSense_1_ScanEnabledWidgets:
 613              	.LFB7:
 996:Generated_Source\PSoC5/CapSense_1.c ****     /* Clears status/control variable and set sensorIndex */
 614              		.loc 1 996 0
 615              		.cfi_startproc
 616              		@ args = 0, pretend = 0, frame = 0
 617              		@ frame_needed = 0, uses_anonymous_args = 0
 618 0000 10B5     		push	{r4, lr}
ARM GAS  C:\Users\ash750\AppData\Local\Temp\ccm8BDlp.s 			page 45


 619              		.cfi_def_cfa_offset 8
 620              		.cfi_offset 4, -8
 621              		.cfi_offset 14, -4
 998:Generated_Source\PSoC5/CapSense_1.c ****     CapSense_1_sensorIndex = 0xFFu;
 622              		.loc 1 998 0
 623 0002 0022     		movs	r2, #0
 624 0004 0A4B     		ldr	r3, .L54
 625 0006 1A70     		strb	r2, [r3]
 999:Generated_Source\PSoC5/CapSense_1.c ****     
 626              		.loc 1 999 0
 627 0008 0A4C     		ldr	r4, .L54+4
 628 000a FF23     		movs	r3, #255
 629 000c 2370     		strb	r3, [r4]
1003:Generated_Source\PSoC5/CapSense_1.c **** 
 630              		.loc 1 1003 0
 631 000e 2078     		ldrb	r0, [r4]	@ zero_extendqisi2
 632 0010 FFF7FEFF 		bl	CapSense_1_FindNextSensor
 633              	.LVL45:
 634 0014 2070     		strb	r0, [r4]
1006:Generated_Source\PSoC5/CapSense_1.c ****         {
 635              		.loc 1 1006 0
 636 0016 2378     		ldrb	r3, [r4]	@ zero_extendqisi2
 637 0018 13F0FF0F 		tst	r3, #255
 638 001c 07D1     		bne	.L51
1008:Generated_Source\PSoC5/CapSense_1.c ****             CapSense_1_PreScan(CapSense_1_sensorIndex);
 639              		.loc 1 1008 0
 640 001e 044A     		ldr	r2, .L54
 641 0020 1378     		ldrb	r3, [r2]	@ zero_extendqisi2
 642 0022 43F00103 		orr	r3, r3, #1
 643 0026 1370     		strb	r3, [r2]
1009:Generated_Source\PSoC5/CapSense_1.c ****         }
 644              		.loc 1 1009 0
 645 0028 2078     		ldrb	r0, [r4]	@ zero_extendqisi2
 646 002a FFF7FEFF 		bl	CapSense_1_PreScan
 647              	.LVL46:
 648              	.L51:
 649 002e 10BD     		pop	{r4, pc}
 650              	.L55:
 651              		.align	2
 652              	.L54:
 653 0030 00000000 		.word	CapSense_1_csv
 654 0034 00000000 		.word	CapSense_1_sensorIndex
 655              		.cfi_endproc
 656              	.LFE7:
 657              		.size	CapSense_1_ScanEnabledWidgets, .-CapSense_1_ScanEnabledWidgets
 658              		.section	.text.CapSense_1_GetPrescaler,"ax",%progbits
 659              		.align	2
 660              		.global	CapSense_1_GetPrescaler
 661              		.thumb
 662              		.thumb_func
 663              		.type	CapSense_1_GetPrescaler, %function
 664              	CapSense_1_GetPrescaler:
 665              	.LFB16:
1857:Generated_Source\PSoC5/CapSense_1.c ****         #elif (CapSense_1_PRESCALER_OPTIONS == CapSense_1_PRESCALER_FF)
1858:Generated_Source\PSoC5/CapSense_1.c ****             CY_SET_REG16(CapSense_1_PRESCALER_PERIOD_PTR, (uint16) prescaler);
1859:Generated_Source\PSoC5/CapSense_1.c ****             CY_SET_REG16(CapSense_1_PRESCALER_COMPARE_PTR, (uint16) (prescaler >> 1u));
1860:Generated_Source\PSoC5/CapSense_1.c ****         #else
ARM GAS  C:\Users\ash750\AppData\Local\Temp\ccm8BDlp.s 			page 46


1861:Generated_Source\PSoC5/CapSense_1.c ****             /* Do nothing = config without prescaler */
1862:Generated_Source\PSoC5/CapSense_1.c ****         #endif  /* (CapSense_1_PRESCALER_OPTIONS == CapSense_1_PRESCALER_UDB) */
1863:Generated_Source\PSoC5/CapSense_1.c ****     }
1864:Generated_Source\PSoC5/CapSense_1.c **** 
1865:Generated_Source\PSoC5/CapSense_1.c **** 
1866:Generated_Source\PSoC5/CapSense_1.c ****     /*******************************************************************************
1867:Generated_Source\PSoC5/CapSense_1.c ****     * Function Name: CapSense_1_GetPrescaler
1868:Generated_Source\PSoC5/CapSense_1.c ****     ********************************************************************************
1869:Generated_Source\PSoC5/CapSense_1.c ****     *
1870:Generated_Source\PSoC5/CapSense_1.c ****     * Summary:
1871:Generated_Source\PSoC5/CapSense_1.c ****     *  Gets analog switch divider.
1872:Generated_Source\PSoC5/CapSense_1.c ****     *
1873:Generated_Source\PSoC5/CapSense_1.c ****     * Parameters:
1874:Generated_Source\PSoC5/CapSense_1.c ****     *  None
1875:Generated_Source\PSoC5/CapSense_1.c ****     *
1876:Generated_Source\PSoC5/CapSense_1.c ****     * Return:
1877:Generated_Source\PSoC5/CapSense_1.c ****     *   Returns the prescaler divider value.
1878:Generated_Source\PSoC5/CapSense_1.c ****     *
1879:Generated_Source\PSoC5/CapSense_1.c ****     *******************************************************************************/
1880:Generated_Source\PSoC5/CapSense_1.c ****     uint8 CapSense_1_GetPrescaler(void) 
1881:Generated_Source\PSoC5/CapSense_1.c ****     {
 666              		.loc 1 1881 0
 667              		.cfi_startproc
 668              		@ args = 0, pretend = 0, frame = 0
 669              		@ frame_needed = 0, uses_anonymous_args = 0
 670              		@ link register save eliminated.
 671              	.LVL47:
1882:Generated_Source\PSoC5/CapSense_1.c ****         uint8 prescaler = 0u;
1883:Generated_Source\PSoC5/CapSense_1.c **** 
1884:Generated_Source\PSoC5/CapSense_1.c ****         /* Get Prescaler */
1885:Generated_Source\PSoC5/CapSense_1.c ****         #if (CapSense_1_PRESCALER_OPTIONS == CapSense_1_PRESCALER_UDB)
1886:Generated_Source\PSoC5/CapSense_1.c ****             prescaler = CapSense_1_PRESCALER_PERIOD_REG;
 672              		.loc 1 1886 0
 673 0000 014B     		ldr	r3, .L57
 674 0002 1878     		ldrb	r0, [r3]	@ zero_extendqisi2
 675              	.LVL48:
1887:Generated_Source\PSoC5/CapSense_1.c ****             
1888:Generated_Source\PSoC5/CapSense_1.c ****         #elif (CapSense_1_PRESCALER_OPTIONS == CapSense_1_PRESCALER_FF)
1889:Generated_Source\PSoC5/CapSense_1.c ****             prescaler = (uint8) CY_GET_REG16(CapSense_1_PRESCALER_PERIOD_PTR);
1890:Generated_Source\PSoC5/CapSense_1.c ****             
1891:Generated_Source\PSoC5/CapSense_1.c ****         #else
1892:Generated_Source\PSoC5/CapSense_1.c ****             /* Do nothing = config without prescaler */
1893:Generated_Source\PSoC5/CapSense_1.c ****         #endif  /* (CapSense_1_PRESCALER_OPTIONS == CapSense_1_PRESCALER_UDB) */
1894:Generated_Source\PSoC5/CapSense_1.c ****         
1895:Generated_Source\PSoC5/CapSense_1.c ****         return (prescaler);
1896:Generated_Source\PSoC5/CapSense_1.c ****     }
 676              		.loc 1 1896 0
 677 0004 7047     		bx	lr
 678              	.L58:
 679 0006 00BF     		.align	2
 680              	.L57:
 681 0008 25640040 		.word	1073767461
 682              		.cfi_endproc
 683              	.LFE16:
 684              		.size	CapSense_1_GetPrescaler, .-CapSense_1_GetPrescaler
 685              		.section	.text.CapSense_1_SetScanSpeed,"ax",%progbits
 686              		.align	2
ARM GAS  C:\Users\ash750\AppData\Local\Temp\ccm8BDlp.s 			page 47


 687              		.global	CapSense_1_SetScanSpeed
 688              		.thumb
 689              		.thumb_func
 690              		.type	CapSense_1_SetScanSpeed, %function
 691              	CapSense_1_SetScanSpeed:
 692              	.LFB17:
1897:Generated_Source\PSoC5/CapSense_1.c **** #endif  /* CapSense_1_PRESCALER_OPTIONS */
1898:Generated_Source\PSoC5/CapSense_1.c **** 
1899:Generated_Source\PSoC5/CapSense_1.c **** 
1900:Generated_Source\PSoC5/CapSense_1.c **** /*******************************************************************************
1901:Generated_Source\PSoC5/CapSense_1.c **** * Function Name: CapSense_1_SetScanSpeed
1902:Generated_Source\PSoC5/CapSense_1.c **** ********************************************************************************
1903:Generated_Source\PSoC5/CapSense_1.c **** *
1904:Generated_Source\PSoC5/CapSense_1.c **** * Summary:
1905:Generated_Source\PSoC5/CapSense_1.c **** *  Sets ScanSpeed divider.
1906:Generated_Source\PSoC5/CapSense_1.c **** *
1907:Generated_Source\PSoC5/CapSense_1.c **** * Parameters:
1908:Generated_Source\PSoC5/CapSense_1.c **** *  scanspeed:  Sets ScanSpeed divider.
1909:Generated_Source\PSoC5/CapSense_1.c **** *
1910:Generated_Source\PSoC5/CapSense_1.c **** * Return:
1911:Generated_Source\PSoC5/CapSense_1.c **** *  None
1912:Generated_Source\PSoC5/CapSense_1.c **** *
1913:Generated_Source\PSoC5/CapSense_1.c **** *******************************************************************************/
1914:Generated_Source\PSoC5/CapSense_1.c **** void CapSense_1_SetScanSpeed(uint8 scanSpeed) 
1915:Generated_Source\PSoC5/CapSense_1.c **** {
 693              		.loc 1 1915 0
 694              		.cfi_startproc
 695              		@ args = 0, pretend = 0, frame = 0
 696              		@ frame_needed = 0, uses_anonymous_args = 0
 697              		@ link register save eliminated.
 698              	.LVL49:
1916:Generated_Source\PSoC5/CapSense_1.c ****     CapSense_1_SCANSPEED_PERIOD_REG = scanSpeed; 
 699              		.loc 1 1916 0
 700 0000 014B     		ldr	r3, .L60
 701 0002 1870     		strb	r0, [r3]
 702 0004 7047     		bx	lr
 703              	.L61:
 704 0006 00BF     		.align	2
 705              	.L60:
 706 0008 84640040 		.word	1073767556
 707              		.cfi_endproc
 708              	.LFE17:
 709              		.size	CapSense_1_SetScanSpeed, .-CapSense_1_SetScanSpeed
 710              		.section	.text.CapSense_1_SetAnalogSwitchesSource,"ax",%progbits
 711              		.align	2
 712              		.global	CapSense_1_SetAnalogSwitchesSource
 713              		.thumb
 714              		.thumb_func
 715              		.type	CapSense_1_SetAnalogSwitchesSource, %function
 716              	CapSense_1_SetAnalogSwitchesSource:
 717              	.LFB18:
1917:Generated_Source\PSoC5/CapSense_1.c **** }
1918:Generated_Source\PSoC5/CapSense_1.c **** 
1919:Generated_Source\PSoC5/CapSense_1.c **** 
1920:Generated_Source\PSoC5/CapSense_1.c **** #if (CapSense_1_PRS_OPTIONS)
1921:Generated_Source\PSoC5/CapSense_1.c ****     /*******************************************************************************
1922:Generated_Source\PSoC5/CapSense_1.c ****     * Function Name: CapSense_1_SetAnalogSwitchesSource
ARM GAS  C:\Users\ash750\AppData\Local\Temp\ccm8BDlp.s 			page 48


1923:Generated_Source\PSoC5/CapSense_1.c ****     ********************************************************************************
1924:Generated_Source\PSoC5/CapSense_1.c ****     *
1925:Generated_Source\PSoC5/CapSense_1.c ****     * Summary:
1926:Generated_Source\PSoC5/CapSense_1.c ****     *  Selects the Analog switches source between PRS and prescaler. It is useful
1927:Generated_Source\PSoC5/CapSense_1.c ****     *  for sensor capacitance determination for sensors with low self-capacitance.
1928:Generated_Source\PSoC5/CapSense_1.c ****     *  This function is used in auto-tuning procedure.
1929:Generated_Source\PSoC5/CapSense_1.c ****     *
1930:Generated_Source\PSoC5/CapSense_1.c ****     * Parameters:
1931:Generated_Source\PSoC5/CapSense_1.c ****     *  src:  analog switches source:
1932:Generated_Source\PSoC5/CapSense_1.c ****     *           CapSense_1_ANALOG_SWITCHES_SRC_PRESCALER - selects prescaler
1933:Generated_Source\PSoC5/CapSense_1.c ****     *           CapSense_1_ANALOG_SWITCHES_SRC_PRS - selects PRS
1934:Generated_Source\PSoC5/CapSense_1.c ****     *
1935:Generated_Source\PSoC5/CapSense_1.c ****     * Return:
1936:Generated_Source\PSoC5/CapSense_1.c ****     *  None
1937:Generated_Source\PSoC5/CapSense_1.c ****     *
1938:Generated_Source\PSoC5/CapSense_1.c ****     * Reentrant:
1939:Generated_Source\PSoC5/CapSense_1.c ****     *  No
1940:Generated_Source\PSoC5/CapSense_1.c ****     *******************************************************************************/
1941:Generated_Source\PSoC5/CapSense_1.c ****     void CapSense_1_SetAnalogSwitchesSource(uint8 src)
1942:Generated_Source\PSoC5/CapSense_1.c ****                       
1943:Generated_Source\PSoC5/CapSense_1.c ****     {
 718              		.loc 1 1943 0
 719              		.cfi_startproc
 720              		@ args = 0, pretend = 0, frame = 0
 721              		@ frame_needed = 0, uses_anonymous_args = 0
 722              		@ link register save eliminated.
 723              	.LVL50:
1944:Generated_Source\PSoC5/CapSense_1.c ****         if(src == CapSense_1_ANALOG_SWITCHES_SRC_PRESCALER)
 724              		.loc 1 1944 0
 725 0000 0128     		cmp	r0, #1
 726 0002 05D1     		bne	.L63
1945:Generated_Source\PSoC5/CapSense_1.c ****         {
1946:Generated_Source\PSoC5/CapSense_1.c ****             CapSense_1_CONTROL_REG &= (uint8)~0x10u;
 727              		.loc 1 1946 0
 728 0004 054A     		ldr	r2, .L65
 729 0006 1378     		ldrb	r3, [r2]	@ zero_extendqisi2
 730 0008 03F0EF03 		and	r3, r3, #239
 731 000c 1370     		strb	r3, [r2]
 732 000e 7047     		bx	lr
 733              	.L63:
1947:Generated_Source\PSoC5/CapSense_1.c ****         }
1948:Generated_Source\PSoC5/CapSense_1.c ****         else
1949:Generated_Source\PSoC5/CapSense_1.c ****         {
1950:Generated_Source\PSoC5/CapSense_1.c ****             CapSense_1_CONTROL_REG |= 0x10u;
 734              		.loc 1 1950 0
 735 0010 024A     		ldr	r2, .L65
 736 0012 1378     		ldrb	r3, [r2]	@ zero_extendqisi2
 737 0014 43F01003 		orr	r3, r3, #16
 738 0018 1370     		strb	r3, [r2]
 739 001a 7047     		bx	lr
 740              	.L66:
 741              		.align	2
 742              	.L65:
 743 001c 76640040 		.word	1073767542
 744              		.cfi_endproc
 745              	.LFE18:
 746              		.size	CapSense_1_SetAnalogSwitchesSource, .-CapSense_1_SetAnalogSwitchesSource
ARM GAS  C:\Users\ash750\AppData\Local\Temp\ccm8BDlp.s 			page 49


 747              		.section	.text.CapSense_1_Init,"ax",%progbits
 748              		.align	2
 749              		.global	CapSense_1_Init
 750              		.thumb
 751              		.thumb_func
 752              		.type	CapSense_1_Init, %function
 753              	CapSense_1_Init:
 754              	.LFB0:
 100:Generated_Source\PSoC5/CapSense_1.c ****     #if ( (CapSense_1_PRS_OPTIONS) || \
 755              		.loc 1 100 0
 756              		.cfi_startproc
 757              		@ args = 0, pretend = 0, frame = 0
 758              		@ frame_needed = 0, uses_anonymous_args = 0
 759 0000 38B5     		push	{r3, r4, r5, lr}
 760              		.cfi_def_cfa_offset 16
 761              		.cfi_offset 3, -16
 762              		.cfi_offset 4, -12
 763              		.cfi_offset 5, -8
 764              		.cfi_offset 14, -4
 114:Generated_Source\PSoC5/CapSense_1.c **** 
 765              		.loc 1 114 0
 766 0002 FFF7FEFF 		bl	CapSense_1_ClearSensors
 767              	.LVL51:
 130:Generated_Source\PSoC5/CapSense_1.c ****     #endif /* (CapSense_1_PRS_OPTIONS) */
 768              		.loc 1 130 0
 769 0006 0220     		movs	r0, #2
 770 0008 FFF7FEFF 		bl	CapSense_1_SetAnalogSwitchesSource
 771              	.LVL52:
 146:Generated_Source\PSoC5/CapSense_1.c ****         CapSense_1_AUX_CONTROL_A_REG |= CapSense_1_AUXCTRL_FIFO_SINGLE_REG;
 772              		.loc 1 146 0
 773 000c FFF7FEFF 		bl	CyEnterCriticalSection
 774              	.LVL53:
 147:Generated_Source\PSoC5/CapSense_1.c ****         CapSense_1_AUX_CONTROL_B_REG |= CapSense_1_AUXCTRL_FIFO_SINGLE_REG;
 775              		.loc 1 147 0
 776 0010 2E4A     		ldr	r2, .L69
 777 0012 1378     		ldrb	r3, [r2]	@ zero_extendqisi2
 778 0014 43F00303 		orr	r3, r3, #3
 779 0018 1370     		strb	r3, [r2]
 148:Generated_Source\PSoC5/CapSense_1.c ****         CyExitCriticalSection(enableInterrupts);
 780              		.loc 1 148 0
 781 001a 0132     		adds	r2, r2, #1
 782 001c 1378     		ldrb	r3, [r2]	@ zero_extendqisi2
 783 001e 43F00303 		orr	r3, r3, #3
 784 0022 1370     		strb	r3, [r2]
 149:Generated_Source\PSoC5/CapSense_1.c ****         
 785              		.loc 1 149 0
 786 0024 FFF7FEFF 		bl	CyExitCriticalSection
 787              	.LVL54:
 152:Generated_Source\PSoC5/CapSense_1.c ****         /* Write FIFO with seed */
 788              		.loc 1 152 0
 789 0028 4FF43442 		mov	r2, #46080
 790 002c 284B     		ldr	r3, .L69+4
 791 002e 1A80     		strh	r2, [r3]	@ movhi
 154:Generated_Source\PSoC5/CapSense_1.c ****                 
 792              		.loc 1 154 0
 793 0030 4FF6FF74 		movw	r4, #65535
 794 0034 2033     		adds	r3, r3, #32
ARM GAS  C:\Users\ash750\AppData\Local\Temp\ccm8BDlp.s 			page 50


 795 0036 1C80     		strh	r4, [r3]	@ movhi
 174:Generated_Source\PSoC5/CapSense_1.c ****     
 796              		.loc 1 174 0
 797 0038 0725     		movs	r5, #7
 798 003a 3E33     		adds	r3, r3, #62
 799 003c 1D70     		strb	r5, [r3]
 190:Generated_Source\PSoC5/CapSense_1.c ****         CapSense_1_PWM_CH0_AUX_CONTROL_REG |= CapSense_1_AUXCTRL_FIFO_SINGLE_REG;
 800              		.loc 1 190 0
 801 003e FFF7FEFF 		bl	CyEnterCriticalSection
 802              	.LVL55:
 191:Generated_Source\PSoC5/CapSense_1.c ****         CapSense_1_RAW_CH0_AUX_CONTROL_REG |= CapSense_1_AUXCTRL_FIFO_SINGLE_REG;
 803              		.loc 1 191 0
 804 0042 244A     		ldr	r2, .L69+8
 805 0044 1378     		ldrb	r3, [r2]	@ zero_extendqisi2
 806 0046 43F00303 		orr	r3, r3, #3
 807 004a 1370     		strb	r3, [r2]
 192:Generated_Source\PSoC5/CapSense_1.c ****         CyExitCriticalSection(enableInterrupts);
 808              		.loc 1 192 0
 809 004c A2F58172 		sub	r2, r2, #258
 810 0050 1378     		ldrb	r3, [r2]	@ zero_extendqisi2
 811 0052 43F00303 		orr	r3, r3, #3
 812 0056 1370     		strb	r3, [r2]
 193:Generated_Source\PSoC5/CapSense_1.c ****         
 813              		.loc 1 193 0
 814 0058 FFF7FEFF 		bl	CyExitCriticalSection
 815              	.LVL56:
 196:Generated_Source\PSoC5/CapSense_1.c ****         CapSense_1_PWM_CH0_PERIOD_LO_REG    = CapSense_1_MEASURE_FULL_RANGE_LOW;
 816              		.loc 1 196 0
 817 005c FF23     		movs	r3, #255
 818 005e 1E4A     		ldr	r2, .L69+12
 819 0060 1470     		strb	r4, [r2]
 197:Generated_Source\PSoC5/CapSense_1.c ****         CapSense_1_PWM_CH0_COUNTER_LO_REG   = CapSense_1_MEASURE_FULL_RANGE_LOW;
 820              		.loc 1 197 0
 821 0062 2032     		adds	r2, r2, #32
 822 0064 1370     		strb	r3, [r2]
 198:Generated_Source\PSoC5/CapSense_1.c ****         
 823              		.loc 1 198 0
 824 0066 403A     		subs	r2, r2, #64
 825 0068 1370     		strb	r3, [r2]
 201:Generated_Source\PSoC5/CapSense_1.c ****         CapSense_1_RAW_CH0_PERIOD_HI_REG    = CapSense_1_MEASURE_FULL_RANGE_LOW;
 826              		.loc 1 201 0
 827 006a E23A     		subs	r2, r2, #226
 828 006c 1370     		strb	r3, [r2]
 202:Generated_Source\PSoC5/CapSense_1.c ****         CapSense_1_RAW_CH0_PERIOD_LO_REG    = CapSense_1_MEASURE_FULL_RANGE_LOW;
 829              		.loc 1 202 0
 830 006e 3032     		adds	r2, r2, #48
 831 0070 1370     		strb	r3, [r2]
 203:Generated_Source\PSoC5/CapSense_1.c ****         
 832              		.loc 1 203 0
 833 0072 103A     		subs	r2, r2, #16
 834 0074 1370     		strb	r3, [r2]
 242:Generated_Source\PSoC5/CapSense_1.c ****     (void)CyIntSetVector(CapSense_1_IsrCH0_ISR_NUMBER, &CapSense_1_IsrCH0_ISR);
 835              		.loc 1 242 0
 836 0076 0124     		movs	r4, #1
 837 0078 03F1E023 		add	r3, r3, #-536813568
 838 007c 8133     		adds	r3, r3, #129
 839 007e 1C60     		str	r4, [r3]
ARM GAS  C:\Users\ash750\AppData\Local\Temp\ccm8BDlp.s 			page 51


 243:Generated_Source\PSoC5/CapSense_1.c ****     CyIntSetPriority(CapSense_1_IsrCH0_ISR_NUMBER, CapSense_1_IsrCH0_ISR_PRIORITY);
 840              		.loc 1 243 0
 841 0080 1649     		ldr	r1, .L69+16
 842 0082 0020     		movs	r0, #0
 843 0084 FFF7FEFF 		bl	CyIntSetVector
 844              	.LVL57:
 244:Generated_Source\PSoC5/CapSense_1.c ****     
 845              		.loc 1 244 0
 846 0088 2946     		mov	r1, r5
 847 008a 0020     		movs	r0, #0
 848 008c FFF7FEFF 		bl	CyIntSetPriority
 849              	.LVL58:
 253:Generated_Source\PSoC5/CapSense_1.c ****     CapSense_1_AMuxCH0_Connect(CapSense_1_AMuxCH0_CMOD_CHANNEL);
 850              		.loc 1 253 0
 851 0090 FFF7FEFF 		bl	CapSense_1_AMuxCH0_Init
 852              	.LVL59:
 254:Generated_Source\PSoC5/CapSense_1.c ****     CapSense_1_AMuxCH0_Connect(CapSense_1_AMuxCH0_CMP_VP_CHANNEL);
 853              		.loc 1 254 0
 854 0094 2046     		mov	r0, r4
 855 0096 FFF7FEFF 		bl	CapSense_1_AMuxCH0_Set
 856              	.LVL60:
 255:Generated_Source\PSoC5/CapSense_1.c ****     #if (CapSense_1_CURRENT_SOURCE)
 857              		.loc 1 255 0
 858 009a 0220     		movs	r0, #2
 859 009c FFF7FEFF 		bl	CapSense_1_AMuxCH0_Set
 860              	.LVL61:
 257:Generated_Source\PSoC5/CapSense_1.c ****     #endif  /* CapSense_1_CURRENT_SOURCE */
 861              		.loc 1 257 0
 862 00a0 0320     		movs	r0, #3
 863 00a2 FFF7FEFF 		bl	CapSense_1_AMuxCH0_Set
 864              	.LVL62:
 275:Generated_Source\PSoC5/CapSense_1.c ****     #if (CapSense_1_DESIGN_TYPE == CapSense_1_TWO_CHANNELS_DESIGN)
 865              		.loc 1 275 0
 866 00a6 0E4A     		ldr	r2, .L69+20
 867 00a8 1378     		ldrb	r3, [r2]	@ zero_extendqisi2
 868 00aa 43F00403 		orr	r3, r3, #4
 869 00ae 1370     		strb	r3, [r2]
 281:Generated_Source\PSoC5/CapSense_1.c ****     #if (CapSense_1_CURRENT_SOURCE)
 870              		.loc 1 281 0
 871 00b0 FFF7FEFF 		bl	CapSense_1_CompCH0_Init
 872              	.LVL63:
 283:Generated_Source\PSoC5/CapSense_1.c ****         CapSense_1_IdacCH0_SetPolarity(CapSense_1_IdacCH0_IDIR);
 873              		.loc 1 283 0
 874 00b4 FFF7FEFF 		bl	CapSense_1_IdacCH0_Init
 875              	.LVL64:
 284:Generated_Source\PSoC5/CapSense_1.c ****         CapSense_1_IdacCH0_SetRange(CapSense_1_IDAC_RANGE_VALUE);
 876              		.loc 1 284 0
 877 00b8 0020     		movs	r0, #0
 878 00ba FFF7FEFF 		bl	CapSense_1_IdacCH0_SetPolarity
 879              	.LVL65:
 285:Generated_Source\PSoC5/CapSense_1.c ****         CapSense_1_IdacCH0_SetValue(CapSense_1_TURN_OFF_IDAC);
 880              		.loc 1 285 0
 881 00be 0420     		movs	r0, #4
 882 00c0 FFF7FEFF 		bl	CapSense_1_IdacCH0_SetRange
 883              	.LVL66:
 286:Generated_Source\PSoC5/CapSense_1.c ****     #endif  /* CapSense_1_CURRENT_SOURCE */
 884              		.loc 1 286 0
ARM GAS  C:\Users\ash750\AppData\Local\Temp\ccm8BDlp.s 			page 52


 885 00c4 0020     		movs	r0, #0
 886 00c6 FFF7FEFF 		bl	CapSense_1_IdacCH0_SetValue
 887              	.LVL67:
 888 00ca 38BD     		pop	{r3, r4, r5, pc}
 889              	.L70:
 890              		.align	2
 891              	.L69:
 892 00cc 96640040 		.word	1073767574
 893 00d0 26640040 		.word	1073767462
 894 00d4 96650040 		.word	1073767830
 895 00d8 26650040 		.word	1073767718
 896 00dc 00000000 		.word	CapSense_1_IsrCH0_ISR
 897 00e0 76640040 		.word	1073767542
 898              		.cfi_endproc
 899              	.LFE0:
 900              		.size	CapSense_1_Init, .-CapSense_1_Init
 901              		.section	.text.CapSense_1_Start,"ax",%progbits
 902              		.align	2
 903              		.global	CapSense_1_Start
 904              		.thumb
 905              		.thumb_func
 906              		.type	CapSense_1_Start, %function
 907              	CapSense_1_Start:
 908              	.LFB2:
 478:Generated_Source\PSoC5/CapSense_1.c ****     if (CapSense_1_initVar == 0u)
 909              		.loc 1 478 0
 910              		.cfi_startproc
 911              		@ args = 0, pretend = 0, frame = 0
 912              		@ frame_needed = 0, uses_anonymous_args = 0
 913 0000 08B5     		push	{r3, lr}
 914              		.cfi_def_cfa_offset 8
 915              		.cfi_offset 3, -8
 916              		.cfi_offset 14, -4
 479:Generated_Source\PSoC5/CapSense_1.c ****     {
 917              		.loc 1 479 0
 918 0002 054B     		ldr	r3, .L74
 919 0004 1B78     		ldrb	r3, [r3]	@ zero_extendqisi2
 920 0006 23B9     		cbnz	r3, .L72
 481:Generated_Source\PSoC5/CapSense_1.c ****         CapSense_1_initVar = 1u;
 921              		.loc 1 481 0
 922 0008 FFF7FEFF 		bl	CapSense_1_Init
 923              	.LVL68:
 482:Generated_Source\PSoC5/CapSense_1.c ****     }
 924              		.loc 1 482 0
 925 000c 0122     		movs	r2, #1
 926 000e 024B     		ldr	r3, .L74
 927 0010 1A70     		strb	r2, [r3]
 928              	.L72:
 484:Generated_Source\PSoC5/CapSense_1.c ****     
 929              		.loc 1 484 0
 930 0012 FFF7FEFF 		bl	CapSense_1_Enable
 931              	.LVL69:
 932 0016 08BD     		pop	{r3, pc}
 933              	.L75:
 934              		.align	2
 935              	.L74:
 936 0018 00000000 		.word	.LANCHOR1
ARM GAS  C:\Users\ash750\AppData\Local\Temp\ccm8BDlp.s 			page 53


 937              		.cfi_endproc
 938              	.LFE2:
 939              		.size	CapSense_1_Start, .-CapSense_1_Start
 940              		.global	CapSense_1_widgetNumber
 941              		.global	CapSense_1_analogSwitchDivider
 942              		.global	CapSense_1_widgetResolution
 943              		.global	CapSense_1_idacSettings
 944              		.global	CapSense_1_csTable
 945              		.global	CapSense_1_maskTable
 946              		.global	CapSense_1_portTable
 947              		.global	CapSense_1_pcTable
 948              		.global	CapSense_1_sensorEnableMask
 949              		.comm	CapSense_1_sensorRaw,2,4
 950              		.comm	CapSense_1_sensorIndex,1,1
 951              		.comm	CapSense_1_csv,1,1
 952              		.section	.rodata
 953              		.align	2
 954              		.type	CapSense_1_widgetNumber, %object
 955              		.size	CapSense_1_widgetNumber, 1
 956              	CapSense_1_widgetNumber:
 957 0000 00       		.space	1
 958 0001 000000   		.space	3
 959              		.type	CapSense_1_widgetResolution, %object
 960              		.size	CapSense_1_widgetResolution, 1
 961              	CapSense_1_widgetResolution:
 962 0004 03       		.byte	3
 963 0005 000000   		.space	3
 964              		.type	CapSense_1_idacSettings, %object
 965              		.size	CapSense_1_idacSettings, 1
 966              	CapSense_1_idacSettings:
 967 0008 C8       		.byte	-56
 968 0009 000000   		.space	3
 969              		.type	CapSense_1_csTable, %object
 970              		.size	CapSense_1_csTable, 32
 971              	CapSense_1_csTable:
 972 000c 06520040 		.word	1073762822
 973 0010 0E520040 		.word	1073762830
 974 0014 16520040 		.word	1073762838
 975 0018 1E520040 		.word	1073762846
 976 001c 26520040 		.word	1073762854
 977 0020 2E520040 		.word	1073762862
 978 0024 36520040 		.word	1073762870
 979 0028 7E520040 		.word	1073762942
 980              		.type	CapSense_1_maskTable, %object
 981              		.size	CapSense_1_maskTable, 1
 982              	CapSense_1_maskTable:
 983 002c 40       		.byte	64
 984 002d 000000   		.space	3
 985              		.type	CapSense_1_portTable, %object
 986              		.size	CapSense_1_portTable, 1
 987              	CapSense_1_portTable:
 988 0030 01       		.byte	1
 989 0031 000000   		.space	3
 990              		.type	CapSense_1_pcTable, %object
 991              		.size	CapSense_1_pcTable, 4
 992              	CapSense_1_pcTable:
 993 0034 0E500040 		.word	1073762318
ARM GAS  C:\Users\ash750\AppData\Local\Temp\ccm8BDlp.s 			page 54


 994              		.data
 995              		.align	2
 996              		.set	.LANCHOR0,. + 0
 997              		.type	CapSense_1_sensorEnableMask, %object
 998              		.size	CapSense_1_sensorEnableMask, 1
 999              	CapSense_1_sensorEnableMask:
 1000 0000 01       		.byte	1
 1001 0001 000000   		.space	3
 1002              		.type	CapSense_1_analogSwitchDivider, %object
 1003              		.size	CapSense_1_analogSwitchDivider, 1
 1004              	CapSense_1_analogSwitchDivider:
 1005 0004 0B       		.byte	11
 1006              		.bss
 1007              		.set	.LANCHOR1,. + 0
 1008              		.type	CapSense_1_initVar, %object
 1009              		.size	CapSense_1_initVar, 1
 1010              	CapSense_1_initVar:
 1011 0000 00       		.space	1
 1012              		.text
 1013              	.Letext0:
 1014              		.file 2 "Generated_Source\\PSoC5\\cytypes.h"
 1015              		.file 3 "Generated_Source\\PSoC5\\CyLib.h"
 1016              		.file 4 "Generated_Source\\PSoC5\\CapSense_1_IntClock.h"
 1017              		.file 5 "Generated_Source\\PSoC5\\CapSense_1_CompCH0.h"
 1018              		.file 6 "Generated_Source\\PSoC5\\CapSense_1_IdacCH0.h"
 1019              		.file 7 "Generated_Source\\PSoC5\\cyfitter_cfg.h"
 1020              		.file 8 "Generated_Source\\PSoC5\\CapSense_1_AMuxCH0.h"