ARM GAS  C:\Users\jayti\AppData\Local\Temp\ccsaBnuW.s 			page 1


   1              		.syntax unified
   2              		.cpu cortex-m3
   3              		.fpu softvfp
   4              		.eabi_attribute 20, 1
   5              		.eabi_attribute 21, 1
   6              		.eabi_attribute 23, 3
   7              		.eabi_attribute 24, 1
   8              		.eabi_attribute 25, 1
   9              		.eabi_attribute 26, 1
  10              		.eabi_attribute 30, 1
  11              		.eabi_attribute 34, 1
  12              		.eabi_attribute 18, 4
  13              		.thumb
  14              		.syntax unified
  15              		.file	"cyfitter_cfg.c"
  16              		.text
  17              	.Ltext0:
  18              		.cfi_sections	.debug_frame
  19              		.section	.text.CyClockStartupError,"ax",%progbits
  20              		.align	2
  21              		.thumb
  22              		.thumb_func
  23              		.type	CyClockStartupError, %function
  24              	CyClockStartupError:
  25              	.LFB3:
  26              		.file 1 "Generated_Source\\PSoC5\\cyfitter_cfg.c"
   1:Generated_Source\PSoC5/cyfitter_cfg.c **** 
   2:Generated_Source\PSoC5/cyfitter_cfg.c **** /*******************************************************************************
   3:Generated_Source\PSoC5/cyfitter_cfg.c **** * File Name: cyfitter_cfg.c
   4:Generated_Source\PSoC5/cyfitter_cfg.c **** * 
   5:Generated_Source\PSoC5/cyfitter_cfg.c **** * PSoC Creator  4.4
   6:Generated_Source\PSoC5/cyfitter_cfg.c **** *
   7:Generated_Source\PSoC5/cyfitter_cfg.c **** * Description:
   8:Generated_Source\PSoC5/cyfitter_cfg.c **** * This file contains device initialization code.
   9:Generated_Source\PSoC5/cyfitter_cfg.c **** * Except for the user defined sections in CyClockStartupError(), this file should not be modified.
  10:Generated_Source\PSoC5/cyfitter_cfg.c **** * This file is automatically generated by PSoC Creator.
  11:Generated_Source\PSoC5/cyfitter_cfg.c **** *
  12:Generated_Source\PSoC5/cyfitter_cfg.c **** ********************************************************************************
  13:Generated_Source\PSoC5/cyfitter_cfg.c **** * Copyright (c) 2007-2020 Cypress Semiconductor.  All rights reserved.
  14:Generated_Source\PSoC5/cyfitter_cfg.c **** * You may use this file only in accordance with the license, terms, conditions, 
  15:Generated_Source\PSoC5/cyfitter_cfg.c **** * disclaimers, and limitations in the end user license agreement accompanying 
  16:Generated_Source\PSoC5/cyfitter_cfg.c **** * the software package with which this file was provided.
  17:Generated_Source\PSoC5/cyfitter_cfg.c **** ********************************************************************************/
  18:Generated_Source\PSoC5/cyfitter_cfg.c **** 
  19:Generated_Source\PSoC5/cyfitter_cfg.c **** #include <string.h>
  20:Generated_Source\PSoC5/cyfitter_cfg.c **** #include "cytypes.h"
  21:Generated_Source\PSoC5/cyfitter_cfg.c **** #include "cydevice_trm.h"
  22:Generated_Source\PSoC5/cyfitter_cfg.c **** #include "cyfitter.h"
  23:Generated_Source\PSoC5/cyfitter_cfg.c **** #include "CyLib.h"
  24:Generated_Source\PSoC5/cyfitter_cfg.c **** #include "cyfitter_cfg.h"
  25:Generated_Source\PSoC5/cyfitter_cfg.c **** #include "cyapicallbacks.h"
  26:Generated_Source\PSoC5/cyfitter_cfg.c **** 
  27:Generated_Source\PSoC5/cyfitter_cfg.c **** #define CY_NEED_CYCLOCKSTARTUPERROR 1
  28:Generated_Source\PSoC5/cyfitter_cfg.c **** 
  29:Generated_Source\PSoC5/cyfitter_cfg.c **** 
  30:Generated_Source\PSoC5/cyfitter_cfg.c **** #if defined(__GNUC__) || defined(__ARMCC_VERSION)
  31:Generated_Source\PSoC5/cyfitter_cfg.c ****     #define CYPACKED 
ARM GAS  C:\Users\jayti\AppData\Local\Temp\ccsaBnuW.s 			page 2


  32:Generated_Source\PSoC5/cyfitter_cfg.c ****     #define CYPACKED_ATTR __attribute__ ((packed))
  33:Generated_Source\PSoC5/cyfitter_cfg.c ****     #define CYALIGNED __attribute__ ((aligned))
  34:Generated_Source\PSoC5/cyfitter_cfg.c ****     #define CY_CFG_UNUSED __attribute__ ((unused))
  35:Generated_Source\PSoC5/cyfitter_cfg.c ****     #ifndef CY_CFG_SECTION
  36:Generated_Source\PSoC5/cyfitter_cfg.c ****         #define CY_CFG_SECTION __attribute__ ((section(".psocinit")))
  37:Generated_Source\PSoC5/cyfitter_cfg.c ****     #endif
  38:Generated_Source\PSoC5/cyfitter_cfg.c ****     
  39:Generated_Source\PSoC5/cyfitter_cfg.c ****     #if defined(__ARMCC_VERSION)
  40:Generated_Source\PSoC5/cyfitter_cfg.c ****         #define CY_CFG_MEMORY_BARRIER() __memory_changed()
  41:Generated_Source\PSoC5/cyfitter_cfg.c ****     #else
  42:Generated_Source\PSoC5/cyfitter_cfg.c ****         #define CY_CFG_MEMORY_BARRIER() __sync_synchronize()
  43:Generated_Source\PSoC5/cyfitter_cfg.c ****     #endif
  44:Generated_Source\PSoC5/cyfitter_cfg.c ****     
  45:Generated_Source\PSoC5/cyfitter_cfg.c **** #elif defined(__ICCARM__)
  46:Generated_Source\PSoC5/cyfitter_cfg.c ****     #include <intrinsics.h>
  47:Generated_Source\PSoC5/cyfitter_cfg.c **** 
  48:Generated_Source\PSoC5/cyfitter_cfg.c ****     #define CYPACKED __packed
  49:Generated_Source\PSoC5/cyfitter_cfg.c ****     #define CYPACKED_ATTR 
  50:Generated_Source\PSoC5/cyfitter_cfg.c ****     #define CYALIGNED _Pragma("data_alignment=4")
  51:Generated_Source\PSoC5/cyfitter_cfg.c ****     #define CY_CFG_UNUSED _Pragma("diag_suppress=Pe177")
  52:Generated_Source\PSoC5/cyfitter_cfg.c ****     #define CY_CFG_SECTION _Pragma("location=\".psocinit\"")
  53:Generated_Source\PSoC5/cyfitter_cfg.c ****     
  54:Generated_Source\PSoC5/cyfitter_cfg.c ****     #define CY_CFG_MEMORY_BARRIER() __DMB()
  55:Generated_Source\PSoC5/cyfitter_cfg.c ****     
  56:Generated_Source\PSoC5/cyfitter_cfg.c **** #else
  57:Generated_Source\PSoC5/cyfitter_cfg.c ****     #error Unsupported toolchain
  58:Generated_Source\PSoC5/cyfitter_cfg.c **** #endif
  59:Generated_Source\PSoC5/cyfitter_cfg.c **** 
  60:Generated_Source\PSoC5/cyfitter_cfg.c **** #ifndef CYCODE
  61:Generated_Source\PSoC5/cyfitter_cfg.c ****     #define CYCODE
  62:Generated_Source\PSoC5/cyfitter_cfg.c **** #endif
  63:Generated_Source\PSoC5/cyfitter_cfg.c **** #ifndef CYDATA
  64:Generated_Source\PSoC5/cyfitter_cfg.c ****     #define CYDATA
  65:Generated_Source\PSoC5/cyfitter_cfg.c **** #endif
  66:Generated_Source\PSoC5/cyfitter_cfg.c **** #ifndef CYFAR
  67:Generated_Source\PSoC5/cyfitter_cfg.c ****     #define CYFAR
  68:Generated_Source\PSoC5/cyfitter_cfg.c **** #endif
  69:Generated_Source\PSoC5/cyfitter_cfg.c **** #ifndef CYXDATA
  70:Generated_Source\PSoC5/cyfitter_cfg.c ****     #define CYXDATA
  71:Generated_Source\PSoC5/cyfitter_cfg.c **** #endif
  72:Generated_Source\PSoC5/cyfitter_cfg.c **** 
  73:Generated_Source\PSoC5/cyfitter_cfg.c **** 
  74:Generated_Source\PSoC5/cyfitter_cfg.c **** CY_CFG_UNUSED
  75:Generated_Source\PSoC5/cyfitter_cfg.c **** static void CYMEMZERO(void *s, size_t n);
  76:Generated_Source\PSoC5/cyfitter_cfg.c **** CY_CFG_UNUSED
  77:Generated_Source\PSoC5/cyfitter_cfg.c **** static void CYMEMZERO(void *s, size_t n)
  78:Generated_Source\PSoC5/cyfitter_cfg.c **** {
  79:Generated_Source\PSoC5/cyfitter_cfg.c **** 	(void)memset(s, 0, n);
  80:Generated_Source\PSoC5/cyfitter_cfg.c **** }
  81:Generated_Source\PSoC5/cyfitter_cfg.c **** CY_CFG_UNUSED
  82:Generated_Source\PSoC5/cyfitter_cfg.c **** static void CYCONFIGCPY(void *dest, const void *src, size_t n);
  83:Generated_Source\PSoC5/cyfitter_cfg.c **** CY_CFG_UNUSED
  84:Generated_Source\PSoC5/cyfitter_cfg.c **** static void CYCONFIGCPY(void *dest, const void *src, size_t n)
  85:Generated_Source\PSoC5/cyfitter_cfg.c **** {
  86:Generated_Source\PSoC5/cyfitter_cfg.c **** 	(void)memcpy(dest, src, n);
  87:Generated_Source\PSoC5/cyfitter_cfg.c **** }
  88:Generated_Source\PSoC5/cyfitter_cfg.c **** CY_CFG_UNUSED
ARM GAS  C:\Users\jayti\AppData\Local\Temp\ccsaBnuW.s 			page 3


  89:Generated_Source\PSoC5/cyfitter_cfg.c **** static void CYCONFIGCPYCODE(void *dest, const void *src, size_t n);
  90:Generated_Source\PSoC5/cyfitter_cfg.c **** CY_CFG_UNUSED
  91:Generated_Source\PSoC5/cyfitter_cfg.c **** static void CYCONFIGCPYCODE(void *dest, const void *src, size_t n)
  92:Generated_Source\PSoC5/cyfitter_cfg.c **** {
  93:Generated_Source\PSoC5/cyfitter_cfg.c **** 	(void)memcpy(dest, src, n);
  94:Generated_Source\PSoC5/cyfitter_cfg.c **** }
  95:Generated_Source\PSoC5/cyfitter_cfg.c **** 
  96:Generated_Source\PSoC5/cyfitter_cfg.c **** 
  97:Generated_Source\PSoC5/cyfitter_cfg.c **** 
  98:Generated_Source\PSoC5/cyfitter_cfg.c **** 
  99:Generated_Source\PSoC5/cyfitter_cfg.c **** /* Clock startup error codes                                                   */
 100:Generated_Source\PSoC5/cyfitter_cfg.c **** #define CYCLOCKSTART_NO_ERROR    0u
 101:Generated_Source\PSoC5/cyfitter_cfg.c **** #define CYCLOCKSTART_XTAL_ERROR  1u
 102:Generated_Source\PSoC5/cyfitter_cfg.c **** #define CYCLOCKSTART_32KHZ_ERROR 2u
 103:Generated_Source\PSoC5/cyfitter_cfg.c **** #define CYCLOCKSTART_PLL_ERROR   3u
 104:Generated_Source\PSoC5/cyfitter_cfg.c **** #define CYCLOCKSTART_FLL_ERROR   4u
 105:Generated_Source\PSoC5/cyfitter_cfg.c **** #define CYCLOCKSTART_WCO_ERROR   5u
 106:Generated_Source\PSoC5/cyfitter_cfg.c **** 
 107:Generated_Source\PSoC5/cyfitter_cfg.c **** 
 108:Generated_Source\PSoC5/cyfitter_cfg.c **** #ifdef CY_NEED_CYCLOCKSTARTUPERROR
 109:Generated_Source\PSoC5/cyfitter_cfg.c **** /*******************************************************************************
 110:Generated_Source\PSoC5/cyfitter_cfg.c **** * Function Name: CyClockStartupError
 111:Generated_Source\PSoC5/cyfitter_cfg.c **** ********************************************************************************
 112:Generated_Source\PSoC5/cyfitter_cfg.c **** * Summary:
 113:Generated_Source\PSoC5/cyfitter_cfg.c **** *  If an error is encountered during clock configuration (crystal startup error,
 114:Generated_Source\PSoC5/cyfitter_cfg.c **** *  PLL lock error, etc.), the system will end up here.  Unless reimplemented by
 115:Generated_Source\PSoC5/cyfitter_cfg.c **** *  the customer, this function will stop in an infinite loop.
 116:Generated_Source\PSoC5/cyfitter_cfg.c **** *
 117:Generated_Source\PSoC5/cyfitter_cfg.c **** * Parameters:
 118:Generated_Source\PSoC5/cyfitter_cfg.c **** *   void
 119:Generated_Source\PSoC5/cyfitter_cfg.c **** *
 120:Generated_Source\PSoC5/cyfitter_cfg.c **** * Return:
 121:Generated_Source\PSoC5/cyfitter_cfg.c **** *   void
 122:Generated_Source\PSoC5/cyfitter_cfg.c **** *
 123:Generated_Source\PSoC5/cyfitter_cfg.c **** *******************************************************************************/
 124:Generated_Source\PSoC5/cyfitter_cfg.c **** CY_CFG_UNUSED
 125:Generated_Source\PSoC5/cyfitter_cfg.c **** static void CyClockStartupError(uint8 errorCode);
 126:Generated_Source\PSoC5/cyfitter_cfg.c **** CY_CFG_UNUSED
 127:Generated_Source\PSoC5/cyfitter_cfg.c **** static void CyClockStartupError(uint8 errorCode)
 128:Generated_Source\PSoC5/cyfitter_cfg.c **** {
  27              		.loc 1 128 0
  28              		.cfi_startproc
  29              		@ Volatile: function does not return.
  30              		@ args = 0, pretend = 0, frame = 0
  31              		@ frame_needed = 0, uses_anonymous_args = 0
  32              		@ link register save eliminated.
  33              	.LVL0:
  34              	.L2:
  35 0000 FEE7     		b	.L2
  36              		.cfi_endproc
  37              	.LFE3:
  38              		.size	CyClockStartupError, .-CyClockStartupError
  39 0002 00BF     		.section	.text.cfg_write_bytes32,"ax",%progbits
  40              		.align	2
  41              		.thumb
  42              		.thumb_func
  43              		.type	cfg_write_bytes32, %function
ARM GAS  C:\Users\jayti\AppData\Local\Temp\ccsaBnuW.s 			page 4


  44              	cfg_write_bytes32:
  45              	.LFB4:
 129:Generated_Source\PSoC5/cyfitter_cfg.c ****     /* To remove the compiler warning if errorCode not used.                */
 130:Generated_Source\PSoC5/cyfitter_cfg.c ****     errorCode = errorCode;
 131:Generated_Source\PSoC5/cyfitter_cfg.c **** 
 132:Generated_Source\PSoC5/cyfitter_cfg.c ****     /* If we have a clock startup error (bad MHz crystal, PLL lock, etc.),  */
 133:Generated_Source\PSoC5/cyfitter_cfg.c ****     /* we will end up here to allow the customer to implement something to  */
 134:Generated_Source\PSoC5/cyfitter_cfg.c ****     /* deal with the clock condition.                                       */
 135:Generated_Source\PSoC5/cyfitter_cfg.c **** 
 136:Generated_Source\PSoC5/cyfitter_cfg.c **** #ifdef CY_CFG_CLOCK_STARTUP_ERROR_CALLBACK
 137:Generated_Source\PSoC5/cyfitter_cfg.c ****     CY_CFG_Clock_Startup_ErrorCallback();
 138:Generated_Source\PSoC5/cyfitter_cfg.c **** #else
 139:Generated_Source\PSoC5/cyfitter_cfg.c ****     /*  If not using CY_CFG_CLOCK_STARTUP_ERROR_CALLBACK, place your clock startup code here. */
 140:Generated_Source\PSoC5/cyfitter_cfg.c ****     /* `#START CyClockStartupError` */
 141:Generated_Source\PSoC5/cyfitter_cfg.c **** 
 142:Generated_Source\PSoC5/cyfitter_cfg.c **** 
 143:Generated_Source\PSoC5/cyfitter_cfg.c **** 
 144:Generated_Source\PSoC5/cyfitter_cfg.c ****     /* `#END` */
 145:Generated_Source\PSoC5/cyfitter_cfg.c **** 
 146:Generated_Source\PSoC5/cyfitter_cfg.c ****     while(1) {}
 147:Generated_Source\PSoC5/cyfitter_cfg.c **** #endif /* CY_CFG_CLOCK_STARTUP_ERROR_CALLBACK */
 148:Generated_Source\PSoC5/cyfitter_cfg.c **** }
 149:Generated_Source\PSoC5/cyfitter_cfg.c **** #endif
 150:Generated_Source\PSoC5/cyfitter_cfg.c **** 
 151:Generated_Source\PSoC5/cyfitter_cfg.c **** #define CY_CFG_BASE_ADDR_COUNT 16u
 152:Generated_Source\PSoC5/cyfitter_cfg.c **** CYPACKED typedef struct
 153:Generated_Source\PSoC5/cyfitter_cfg.c **** {
 154:Generated_Source\PSoC5/cyfitter_cfg.c **** 	uint8 offset;
 155:Generated_Source\PSoC5/cyfitter_cfg.c **** 	uint8 value;
 156:Generated_Source\PSoC5/cyfitter_cfg.c **** } CYPACKED_ATTR cy_cfg_addrvalue_t;
 157:Generated_Source\PSoC5/cyfitter_cfg.c **** 
 158:Generated_Source\PSoC5/cyfitter_cfg.c **** #define cy_cfg_addr_table ((const uint32 CYFAR *)0x48000000u)
 159:Generated_Source\PSoC5/cyfitter_cfg.c **** #define cy_cfg_data_table ((const cy_cfg_addrvalue_t CYFAR *)0x48000040u)
 160:Generated_Source\PSoC5/cyfitter_cfg.c **** 
 161:Generated_Source\PSoC5/cyfitter_cfg.c **** /* IOPINS0_0 Address: CYREG_PRT0_DM0 Size (bytes): 8 */
 162:Generated_Source\PSoC5/cyfitter_cfg.c **** #define BS_IOPINS0_0_VAL ((const uint8 CYFAR *)0x4800008Cu)
 163:Generated_Source\PSoC5/cyfitter_cfg.c **** 
 164:Generated_Source\PSoC5/cyfitter_cfg.c **** /* IOPINS0_1 Address: CYREG_PRT1_DM0 Size (bytes): 8 */
 165:Generated_Source\PSoC5/cyfitter_cfg.c **** #define BS_IOPINS0_1_VAL ((const uint8 CYFAR *)0x48000094u)
 166:Generated_Source\PSoC5/cyfitter_cfg.c **** 
 167:Generated_Source\PSoC5/cyfitter_cfg.c **** /* CYDEV_CLKDIST_ACFG0_CFG0 Address: CYREG_CLKDIST_ACFG0_CFG0 Size (bytes): 4 */
 168:Generated_Source\PSoC5/cyfitter_cfg.c **** #define BS_CYDEV_CLKDIST_ACFG0_CFG0_VAL ((const uint8 CYFAR *)0x4800009Cu)
 169:Generated_Source\PSoC5/cyfitter_cfg.c **** 
 170:Generated_Source\PSoC5/cyfitter_cfg.c **** 
 171:Generated_Source\PSoC5/cyfitter_cfg.c **** /*******************************************************************************
 172:Generated_Source\PSoC5/cyfitter_cfg.c **** * Function Name: cfg_write_bytes32
 173:Generated_Source\PSoC5/cyfitter_cfg.c **** ********************************************************************************
 174:Generated_Source\PSoC5/cyfitter_cfg.c **** * Summary:
 175:Generated_Source\PSoC5/cyfitter_cfg.c **** *  This function is used for setting up the chip configuration areas that
 176:Generated_Source\PSoC5/cyfitter_cfg.c **** *  contain relatively sparse data.
 177:Generated_Source\PSoC5/cyfitter_cfg.c **** *
 178:Generated_Source\PSoC5/cyfitter_cfg.c **** * Parameters:
 179:Generated_Source\PSoC5/cyfitter_cfg.c **** *   void
 180:Generated_Source\PSoC5/cyfitter_cfg.c **** *
 181:Generated_Source\PSoC5/cyfitter_cfg.c **** * Return:
 182:Generated_Source\PSoC5/cyfitter_cfg.c **** *   void
 183:Generated_Source\PSoC5/cyfitter_cfg.c **** *
ARM GAS  C:\Users\jayti\AppData\Local\Temp\ccsaBnuW.s 			page 5


 184:Generated_Source\PSoC5/cyfitter_cfg.c **** *******************************************************************************/
 185:Generated_Source\PSoC5/cyfitter_cfg.c **** static void cfg_write_bytes32(const uint32 addr_table[], const cy_cfg_addrvalue_t data_table[]);
 186:Generated_Source\PSoC5/cyfitter_cfg.c **** static void cfg_write_bytes32(const uint32 addr_table[], const cy_cfg_addrvalue_t data_table[])
 187:Generated_Source\PSoC5/cyfitter_cfg.c **** {
  46              		.loc 1 187 0
  47              		.cfi_startproc
  48              		@ args = 0, pretend = 0, frame = 0
  49              		@ frame_needed = 0, uses_anonymous_args = 0
  50              		@ link register save eliminated.
  51              	.LVL1:
  52              		.loc 1 187 0
  53 0000 F0B4     		push	{r4, r5, r6, r7}
  54              		.cfi_def_cfa_offset 16
  55              		.cfi_offset 4, -16
  56              		.cfi_offset 5, -12
  57              		.cfi_offset 6, -8
  58              		.cfi_offset 7, -4
  59              	.LVL2:
 188:Generated_Source\PSoC5/cyfitter_cfg.c **** 	/* For 32-bit little-endian architectures */
 189:Generated_Source\PSoC5/cyfitter_cfg.c **** 	uint32 i, j = 0u;
  60              		.loc 1 189 0
  61 0002 0022     		movs	r2, #0
 190:Generated_Source\PSoC5/cyfitter_cfg.c **** 	for (i = 0u; i < CY_CFG_BASE_ADDR_COUNT; i++)
  62              		.loc 1 190 0
  63 0004 1746     		mov	r7, r2
  64 0006 11E0     		b	.L4
  65              	.LVL3:
  66              	.L7:
  67              	.LBB2:
 191:Generated_Source\PSoC5/cyfitter_cfg.c **** 	{
 192:Generated_Source\PSoC5/cyfitter_cfg.c **** 		uint32 baseAddr = addr_table[i];
  68              		.loc 1 192 0
  69 0008 50F82760 		ldr	r6, [r0, r7, lsl #2]
  70              	.LVL4:
 193:Generated_Source\PSoC5/cyfitter_cfg.c **** 		uint8 count = (uint8)baseAddr;
  71              		.loc 1 193 0
  72 000c F3B2     		uxtb	r3, r6
  73              	.LVL5:
 194:Generated_Source\PSoC5/cyfitter_cfg.c **** 		baseAddr &= 0xFFFFFF00u;
  74              		.loc 1 194 0
  75 000e 26F0FF06 		bic	r6, r6, #255
  76              	.LVL6:
 195:Generated_Source\PSoC5/cyfitter_cfg.c **** 		while (count != 0u)
  77              		.loc 1 195 0
  78 0012 08E0     		b	.L5
  79              	.L6:
 196:Generated_Source\PSoC5/cyfitter_cfg.c **** 		{
 197:Generated_Source\PSoC5/cyfitter_cfg.c **** 			CY_SET_REG8((void *)(baseAddr + data_table[j].offset), data_table[j].value);
  80              		.loc 1 197 0
  81 0014 01EB4205 		add	r5, r1, r2, lsl #1
  82 0018 11F81240 		ldrb	r4, [r1, r2, lsl #1]	@ zero_extendqisi2
  83 001c 6D78     		ldrb	r5, [r5, #1]	@ zero_extendqisi2
  84 001e A555     		strb	r5, [r4, r6]
 198:Generated_Source\PSoC5/cyfitter_cfg.c **** 			j++;
  85              		.loc 1 198 0
  86 0020 0132     		adds	r2, r2, #1
  87              	.LVL7:
ARM GAS  C:\Users\jayti\AppData\Local\Temp\ccsaBnuW.s 			page 6


 199:Generated_Source\PSoC5/cyfitter_cfg.c **** 			count--;
  88              		.loc 1 199 0
  89 0022 013B     		subs	r3, r3, #1
  90              	.LVL8:
  91 0024 DBB2     		uxtb	r3, r3
  92              	.LVL9:
  93              	.L5:
 195:Generated_Source\PSoC5/cyfitter_cfg.c **** 		{
  94              		.loc 1 195 0
  95 0026 002B     		cmp	r3, #0
  96 0028 F4D1     		bne	.L6
  97              	.LBE2:
 190:Generated_Source\PSoC5/cyfitter_cfg.c **** 	{
  98              		.loc 1 190 0 discriminator 2
  99 002a 0137     		adds	r7, r7, #1
 100              	.LVL10:
 101              	.L4:
 190:Generated_Source\PSoC5/cyfitter_cfg.c **** 	{
 102              		.loc 1 190 0 is_stmt 0 discriminator 1
 103 002c 0F2F     		cmp	r7, #15
 104 002e EBD9     		bls	.L7
 200:Generated_Source\PSoC5/cyfitter_cfg.c **** 		}
 201:Generated_Source\PSoC5/cyfitter_cfg.c **** 	}
 202:Generated_Source\PSoC5/cyfitter_cfg.c **** }
 105              		.loc 1 202 0 is_stmt 1
 106 0030 F0BC     		pop	{r4, r5, r6, r7}
 107              		.cfi_restore 7
 108              		.cfi_restore 6
 109              		.cfi_restore 5
 110              		.cfi_restore 4
 111              		.cfi_def_cfa_offset 0
 112              	.LVL11:
 113 0032 7047     		bx	lr
 114              		.cfi_endproc
 115              	.LFE4:
 116              		.size	cfg_write_bytes32, .-cfg_write_bytes32
 117              		.section	.text.AnalogSetDefault,"ax",%progbits
 118              		.align	2
 119              		.thumb
 120              		.thumb_func
 121              		.type	AnalogSetDefault, %function
 122              	AnalogSetDefault:
 123              	.LFB6:
 203:Generated_Source\PSoC5/cyfitter_cfg.c **** 
 204:Generated_Source\PSoC5/cyfitter_cfg.c **** /*******************************************************************************
 205:Generated_Source\PSoC5/cyfitter_cfg.c **** * Function Name: ClockSetup
 206:Generated_Source\PSoC5/cyfitter_cfg.c **** ********************************************************************************
 207:Generated_Source\PSoC5/cyfitter_cfg.c **** *
 208:Generated_Source\PSoC5/cyfitter_cfg.c **** * Summary:
 209:Generated_Source\PSoC5/cyfitter_cfg.c **** *  Performs the initialization of all of the clocks in the device based on the
 210:Generated_Source\PSoC5/cyfitter_cfg.c **** *  settings in the Clock tab of the DWR.  This includes enabling the requested
 211:Generated_Source\PSoC5/cyfitter_cfg.c **** *  clocks and setting the necessary dividers to produce the desired frequency. 
 212:Generated_Source\PSoC5/cyfitter_cfg.c **** *
 213:Generated_Source\PSoC5/cyfitter_cfg.c **** * Parameters:
 214:Generated_Source\PSoC5/cyfitter_cfg.c **** *  void
 215:Generated_Source\PSoC5/cyfitter_cfg.c **** *
 216:Generated_Source\PSoC5/cyfitter_cfg.c **** * Return:
ARM GAS  C:\Users\jayti\AppData\Local\Temp\ccsaBnuW.s 			page 7


 217:Generated_Source\PSoC5/cyfitter_cfg.c **** *  void
 218:Generated_Source\PSoC5/cyfitter_cfg.c **** *
 219:Generated_Source\PSoC5/cyfitter_cfg.c **** *******************************************************************************/
 220:Generated_Source\PSoC5/cyfitter_cfg.c **** static void ClockSetup(void);
 221:Generated_Source\PSoC5/cyfitter_cfg.c **** static void ClockSetup(void)
 222:Generated_Source\PSoC5/cyfitter_cfg.c **** {
 223:Generated_Source\PSoC5/cyfitter_cfg.c **** 	uint32 timeout;
 224:Generated_Source\PSoC5/cyfitter_cfg.c **** 	uint8 pllLock;
 225:Generated_Source\PSoC5/cyfitter_cfg.c **** 
 226:Generated_Source\PSoC5/cyfitter_cfg.c **** 
 227:Generated_Source\PSoC5/cyfitter_cfg.c **** 	/* Configure Analog Clocks based on settings from Clock DWR */
 228:Generated_Source\PSoC5/cyfitter_cfg.c **** 	CYCONFIGCPY((void CYFAR *)(CYREG_CLKDIST_ACFG0_CFG0), (const void CYFAR *)(BS_CYDEV_CLKDIST_ACFG0_
 229:Generated_Source\PSoC5/cyfitter_cfg.c **** 
 230:Generated_Source\PSoC5/cyfitter_cfg.c **** 	/* Configure ILO based on settings from Clock DWR */
 231:Generated_Source\PSoC5/cyfitter_cfg.c **** 	CY_SET_XTND_REG8((void CYFAR *)(CYREG_SLOWCLK_ILO_CR0), 0x02u);
 232:Generated_Source\PSoC5/cyfitter_cfg.c **** 	CY_SET_XTND_REG8((void CYFAR *)(CYREG_CLKDIST_CR), 0x08u);
 233:Generated_Source\PSoC5/cyfitter_cfg.c **** 
 234:Generated_Source\PSoC5/cyfitter_cfg.c **** 	/* Configure IMO based on settings from Clock DWR */
 235:Generated_Source\PSoC5/cyfitter_cfg.c **** 	CY_SET_XTND_REG8((void CYFAR *)(CYREG_FASTCLK_IMO_CR), 0x03u);
 236:Generated_Source\PSoC5/cyfitter_cfg.c **** 	CY_SET_XTND_REG8((void CYFAR *)(CYREG_IMO_TR1), (CY_GET_XTND_REG8((void CYFAR *)CYREG_FLSHID_CUST_
 237:Generated_Source\PSoC5/cyfitter_cfg.c **** 
 238:Generated_Source\PSoC5/cyfitter_cfg.c **** 	/* Configure PLL based on settings from Clock DWR */
 239:Generated_Source\PSoC5/cyfitter_cfg.c **** 	CY_SET_XTND_REG16((void CYFAR *)(CYREG_FASTCLK_PLL_P), 0x0008u);
 240:Generated_Source\PSoC5/cyfitter_cfg.c **** 	CY_SET_XTND_REG16((void CYFAR *)(CYREG_FASTCLK_PLL_CFG0), 0x1251u);
 241:Generated_Source\PSoC5/cyfitter_cfg.c **** 	/* Wait up to 250us for the PLL to lock */
 242:Generated_Source\PSoC5/cyfitter_cfg.c **** 	pllLock = 0u;
 243:Generated_Source\PSoC5/cyfitter_cfg.c **** 	for (timeout = 250u / 10u; (timeout > 0u) && (pllLock != 0x03u); timeout--)
 244:Generated_Source\PSoC5/cyfitter_cfg.c **** 	{ 
 245:Generated_Source\PSoC5/cyfitter_cfg.c **** 		pllLock = 0x03u & ((uint8)((uint8)pllLock << 1) | ((CY_GET_XTND_REG8((void CYFAR *)CYREG_FASTCLK_
 246:Generated_Source\PSoC5/cyfitter_cfg.c **** 		CyDelayCycles(10u * 48u); /* Delay 10us based on 48MHz clock */
 247:Generated_Source\PSoC5/cyfitter_cfg.c **** 	}
 248:Generated_Source\PSoC5/cyfitter_cfg.c **** 	/* If we ran out of time the PLL didn't lock so go to the error function */
 249:Generated_Source\PSoC5/cyfitter_cfg.c **** 	if (timeout == 0u)
 250:Generated_Source\PSoC5/cyfitter_cfg.c **** 	{
 251:Generated_Source\PSoC5/cyfitter_cfg.c **** 		CyClockStartupError(CYCLOCKSTART_PLL_ERROR);
 252:Generated_Source\PSoC5/cyfitter_cfg.c **** 	}
 253:Generated_Source\PSoC5/cyfitter_cfg.c **** 
 254:Generated_Source\PSoC5/cyfitter_cfg.c **** 	/* Configure Bus/Master Clock based on settings from Clock DWR */
 255:Generated_Source\PSoC5/cyfitter_cfg.c **** 	CY_SET_XTND_REG16((void CYFAR *)(CYREG_CLKDIST_MSTR0), 0x0100u);
 256:Generated_Source\PSoC5/cyfitter_cfg.c **** 	CY_SET_XTND_REG8((void CYFAR *)(CYREG_CLKDIST_MSTR0), 0x07u);
 257:Generated_Source\PSoC5/cyfitter_cfg.c **** 	CY_SET_XTND_REG8((void CYFAR *)(CYREG_CLKDIST_BCFG0), 0x00u);
 258:Generated_Source\PSoC5/cyfitter_cfg.c **** 	CY_SET_XTND_REG8((void CYFAR *)(CYREG_CLKDIST_BCFG2), 0x48u);
 259:Generated_Source\PSoC5/cyfitter_cfg.c **** 	CY_SET_XTND_REG8((void CYFAR *)(CYREG_CLKDIST_MSTR0), 0x00u);
 260:Generated_Source\PSoC5/cyfitter_cfg.c **** 	CY_SET_XTND_REG8((void CYFAR *)(CYREG_CLKDIST_LD), 0x02u);
 261:Generated_Source\PSoC5/cyfitter_cfg.c **** 	CY_SET_XTND_REG8((void CYFAR *)(CYREG_CLKDIST_DLY1), 0x04u);
 262:Generated_Source\PSoC5/cyfitter_cfg.c **** 
 263:Generated_Source\PSoC5/cyfitter_cfg.c **** 	CY_SET_XTND_REG8((void CYFAR *)(CYREG_PM_ACT_CFG1), ((CY_GET_XTND_REG8((void CYFAR *)CYREG_PM_ACT_
 264:Generated_Source\PSoC5/cyfitter_cfg.c **** 	CY_SET_XTND_REG8((void CYFAR *)(CYREG_PM_ACT_CFG0), ((CY_GET_XTND_REG8((void CYFAR *)CYREG_PM_ACT_
 265:Generated_Source\PSoC5/cyfitter_cfg.c **** }
 266:Generated_Source\PSoC5/cyfitter_cfg.c **** 
 267:Generated_Source\PSoC5/cyfitter_cfg.c **** 
 268:Generated_Source\PSoC5/cyfitter_cfg.c **** /* Analog API Functions */
 269:Generated_Source\PSoC5/cyfitter_cfg.c **** 
 270:Generated_Source\PSoC5/cyfitter_cfg.c **** 
 271:Generated_Source\PSoC5/cyfitter_cfg.c **** /*******************************************************************************
 272:Generated_Source\PSoC5/cyfitter_cfg.c **** * Function Name: AnalogSetDefault
 273:Generated_Source\PSoC5/cyfitter_cfg.c **** ********************************************************************************
ARM GAS  C:\Users\jayti\AppData\Local\Temp\ccsaBnuW.s 			page 8


 274:Generated_Source\PSoC5/cyfitter_cfg.c **** *
 275:Generated_Source\PSoC5/cyfitter_cfg.c **** * Summary:
 276:Generated_Source\PSoC5/cyfitter_cfg.c **** *  Sets up the analog portions of the chip to default values based on chip
 277:Generated_Source\PSoC5/cyfitter_cfg.c **** *  configuration options from the project.
 278:Generated_Source\PSoC5/cyfitter_cfg.c **** *
 279:Generated_Source\PSoC5/cyfitter_cfg.c **** * Parameters:
 280:Generated_Source\PSoC5/cyfitter_cfg.c **** *  void
 281:Generated_Source\PSoC5/cyfitter_cfg.c **** *
 282:Generated_Source\PSoC5/cyfitter_cfg.c **** * Return:
 283:Generated_Source\PSoC5/cyfitter_cfg.c **** *  void
 284:Generated_Source\PSoC5/cyfitter_cfg.c **** *
 285:Generated_Source\PSoC5/cyfitter_cfg.c **** *******************************************************************************/
 286:Generated_Source\PSoC5/cyfitter_cfg.c **** static void AnalogSetDefault(void);
 287:Generated_Source\PSoC5/cyfitter_cfg.c **** static void AnalogSetDefault(void)
 288:Generated_Source\PSoC5/cyfitter_cfg.c **** {
 124              		.loc 1 288 0
 125              		.cfi_startproc
 126              		@ args = 0, pretend = 0, frame = 0
 127              		@ frame_needed = 0, uses_anonymous_args = 0
 128              		@ link register save eliminated.
 289:Generated_Source\PSoC5/cyfitter_cfg.c **** 	uint8 bg_xover_inl_trim = CY_GET_XTND_REG8((void CYFAR *)(CYREG_FLSHID_MFG_CFG_BG_XOVER_INL_TRIM +
 129              		.loc 1 289 0
 130 0000 134B     		ldr	r3, .L10
 131 0002 1B78     		ldrb	r3, [r3]	@ zero_extendqisi2
 132 0004 DBB2     		uxtb	r3, r3
 133              	.LVL12:
 290:Generated_Source\PSoC5/cyfitter_cfg.c **** 	CY_SET_XTND_REG8((void CYFAR *)(CYREG_BG_DFT0), (bg_xover_inl_trim & 0x07u));
 134              		.loc 1 290 0
 135 0006 03F00701 		and	r1, r3, #7
 136 000a 124A     		ldr	r2, .L10+4
 137 000c 1170     		strb	r1, [r2]
 291:Generated_Source\PSoC5/cyfitter_cfg.c **** 	CY_SET_XTND_REG8((void CYFAR *)(CYREG_BG_DFT1), ((bg_xover_inl_trim >> 4) & 0x0Fu));
 138              		.loc 1 291 0
 139 000e 1B09     		lsrs	r3, r3, #4
 140              	.LVL13:
 141 0010 0132     		adds	r2, r2, #1
 142 0012 1370     		strb	r3, [r2]
 292:Generated_Source\PSoC5/cyfitter_cfg.c **** 	CY_SET_XTND_REG8((void CYFAR *)CYREG_PRT0_AG, 0x20u);
 143              		.loc 1 292 0
 144 0014 2023     		movs	r3, #32
 145 0016 A2F26272 		subw	r2, r2, #1890
 146 001a 1370     		strb	r3, [r2]
 293:Generated_Source\PSoC5/cyfitter_cfg.c **** 	CY_SET_XTND_REG8((void CYFAR *)CYREG_SC2_SW0, 0x20u);
 147              		.loc 1 293 0
 148 001c 02F61312 		addw	r2, r2, #2323
 149 0020 1370     		strb	r3, [r2]
 294:Generated_Source\PSoC5/cyfitter_cfg.c **** 	CY_SET_XTND_REG8((void CYFAR *)CYREG_SC2_SW4, 0x02u);
 150              		.loc 1 294 0
 151 0022 0222     		movs	r2, #2
 152 0024 0C49     		ldr	r1, .L10+8
 153 0026 0A70     		strb	r2, [r1]
 295:Generated_Source\PSoC5/cyfitter_cfg.c **** 	CY_SET_XTND_REG8((void CYFAR *)CYREG_SC2_SW8, 0x10u);
 154              		.loc 1 295 0
 155 0028 1021     		movs	r1, #16
 156 002a 0C48     		ldr	r0, .L10+12
 157 002c 0170     		strb	r1, [r0]
 296:Generated_Source\PSoC5/cyfitter_cfg.c **** 	CY_SET_XTND_REG8((void CYFAR *)CYREG_DAC0_SW0, 0x02u);
ARM GAS  C:\Users\jayti\AppData\Local\Temp\ccsaBnuW.s 			page 9


 158              		.loc 1 296 0
 159 002e 5830     		adds	r0, r0, #88
 160 0030 0270     		strb	r2, [r0]
 297:Generated_Source\PSoC5/cyfitter_cfg.c **** 	CY_SET_XTND_REG8((void CYFAR *)CYREG_DAC2_SW4, 0x20u);
 161              		.loc 1 297 0
 162 0032 1430     		adds	r0, r0, #20
 163 0034 0370     		strb	r3, [r0]
 298:Generated_Source\PSoC5/cyfitter_cfg.c **** 	CY_SET_XTND_REG8((void CYFAR *)CYREG_DAC3_SW4, 0x20u);
 164              		.loc 1 298 0
 165 0036 0830     		adds	r0, r0, #8
 166 0038 0370     		strb	r3, [r0]
 299:Generated_Source\PSoC5/cyfitter_cfg.c **** 	CY_SET_XTND_REG8((void CYFAR *)CYREG_CMP0_SW0, 0x02u);
 167              		.loc 1 299 0
 168 003a 2430     		adds	r0, r0, #36
 169 003c 0270     		strb	r2, [r0]
 300:Generated_Source\PSoC5/cyfitter_cfg.c **** 	CY_SET_XTND_REG8((void CYFAR *)CYREG_CMP0_SW4, 0x10u);
 170              		.loc 1 300 0
 171 003e 084A     		ldr	r2, .L10+16
 172 0040 1170     		strb	r1, [r2]
 301:Generated_Source\PSoC5/cyfitter_cfg.c **** 	CY_SET_XTND_REG8((void CYFAR *)CYREG_BUS_SW0, 0x20u);
 173              		.loc 1 301 0
 174 0042 9432     		adds	r2, r2, #148
 175 0044 1370     		strb	r3, [r2]
 302:Generated_Source\PSoC5/cyfitter_cfg.c **** 	CY_SET_XTND_REG8((void CYFAR *)CYREG_PUMP_CR0, 0x44u);
 176              		.loc 1 302 0
 177 0046 4422     		movs	r2, #68
 178 0048 064B     		ldr	r3, .L10+20
 179 004a 1A70     		strb	r2, [r3]
 180 004c 7047     		bx	lr
 181              	.L11:
 182 004e 00BF     		.align	2
 183              	.L10:
 184 0050 CF010049 		.word	1224737231
 185 0054 6E580040 		.word	1073764462
 186 0058 245A0040 		.word	1073764900
 187 005c 285A0040 		.word	1073764904
 188 0060 C45A0040 		.word	1073765060
 189 0064 76580040 		.word	1073764470
 190              		.cfi_endproc
 191              	.LFE6:
 192              		.size	AnalogSetDefault, .-AnalogSetDefault
 193              		.section	.text.CYMEMZERO,"ax",%progbits
 194              		.align	2
 195              		.thumb
 196              		.thumb_func
 197              		.type	CYMEMZERO, %function
 198              	CYMEMZERO:
 199              	.LFB0:
  78:Generated_Source\PSoC5/cyfitter_cfg.c **** 	(void)memset(s, 0, n);
 200              		.loc 1 78 0
 201              		.cfi_startproc
 202              		@ args = 0, pretend = 0, frame = 0
 203              		@ frame_needed = 0, uses_anonymous_args = 0
 204              	.LVL14:
 205 0000 08B5     		push	{r3, lr}
 206              		.cfi_def_cfa_offset 8
 207              		.cfi_offset 3, -8
ARM GAS  C:\Users\jayti\AppData\Local\Temp\ccsaBnuW.s 			page 10


 208              		.cfi_offset 14, -4
  79:Generated_Source\PSoC5/cyfitter_cfg.c **** }
 209              		.loc 1 79 0
 210 0002 0A46     		mov	r2, r1
 211 0004 0021     		movs	r1, #0
 212              	.LVL15:
 213 0006 FFF7FEFF 		bl	memset
 214              	.LVL16:
 215 000a 08BD     		pop	{r3, pc}
 216              		.cfi_endproc
 217              	.LFE0:
 218              		.size	CYMEMZERO, .-CYMEMZERO
 219              		.section	.text.CYCONFIGCPY,"ax",%progbits
 220              		.align	2
 221              		.thumb
 222              		.thumb_func
 223              		.type	CYCONFIGCPY, %function
 224              	CYCONFIGCPY:
 225              	.LFB1:
  85:Generated_Source\PSoC5/cyfitter_cfg.c **** 	(void)memcpy(dest, src, n);
 226              		.loc 1 85 0
 227              		.cfi_startproc
 228              		@ args = 0, pretend = 0, frame = 0
 229              		@ frame_needed = 0, uses_anonymous_args = 0
 230              	.LVL17:
 231 0000 08B5     		push	{r3, lr}
 232              		.cfi_def_cfa_offset 8
 233              		.cfi_offset 3, -8
 234              		.cfi_offset 14, -4
  86:Generated_Source\PSoC5/cyfitter_cfg.c **** }
 235              		.loc 1 86 0
 236 0002 FFF7FEFF 		bl	memcpy
 237              	.LVL18:
 238 0006 08BD     		pop	{r3, pc}
 239              		.cfi_endproc
 240              	.LFE1:
 241              		.size	CYCONFIGCPY, .-CYCONFIGCPY
 242              		.section	.text.ClockSetup,"ax",%progbits
 243              		.align	2
 244              		.thumb
 245              		.thumb_func
 246              		.type	ClockSetup, %function
 247              	ClockSetup:
 248              	.LFB5:
 222:Generated_Source\PSoC5/cyfitter_cfg.c **** 	uint32 timeout;
 249              		.loc 1 222 0
 250              		.cfi_startproc
 251              		@ args = 0, pretend = 0, frame = 0
 252              		@ frame_needed = 0, uses_anonymous_args = 0
 253 0000 38B5     		push	{r3, r4, r5, lr}
 254              		.cfi_def_cfa_offset 16
 255              		.cfi_offset 3, -16
 256              		.cfi_offset 4, -12
 257              		.cfi_offset 5, -8
 258              		.cfi_offset 14, -4
 228:Generated_Source\PSoC5/cyfitter_cfg.c **** 
 259              		.loc 1 228 0
ARM GAS  C:\Users\jayti\AppData\Local\Temp\ccsaBnuW.s 			page 11


 260 0002 0422     		movs	r2, #4
 261 0004 2749     		ldr	r1, .L22
 262 0006 2848     		ldr	r0, .L22+4
 263 0008 FFF7FEFF 		bl	CYCONFIGCPY
 264              	.LVL19:
 231:Generated_Source\PSoC5/cyfitter_cfg.c **** 	CY_SET_XTND_REG8((void CYFAR *)(CYREG_CLKDIST_CR), 0x08u);
 265              		.loc 1 231 0
 266 000c 0222     		movs	r2, #2
 267 000e 274B     		ldr	r3, .L22+8
 268 0010 1A70     		strb	r2, [r3]
 232:Generated_Source\PSoC5/cyfitter_cfg.c **** 
 269              		.loc 1 232 0
 270 0012 0822     		movs	r2, #8
 271 0014 4FF04023 		mov	r3, #1073758208
 272 0018 1A70     		strb	r2, [r3]
 235:Generated_Source\PSoC5/cyfitter_cfg.c **** 	CY_SET_XTND_REG8((void CYFAR *)(CYREG_IMO_TR1), (CY_GET_XTND_REG8((void CYFAR *)CYREG_FLSHID_CUST_
 273              		.loc 1 235 0
 274 001a 0321     		movs	r1, #3
 275 001c 03F50073 		add	r3, r3, #512
 276 0020 1970     		strb	r1, [r3]
 236:Generated_Source\PSoC5/cyfitter_cfg.c **** 
 277              		.loc 1 236 0
 278 0022 234B     		ldr	r3, .L22+12
 279 0024 1B78     		ldrb	r3, [r3]	@ zero_extendqisi2
 280 0026 DBB2     		uxtb	r3, r3
 281 0028 2249     		ldr	r1, .L22+16
 282 002a 0B70     		strb	r3, [r1]
 239:Generated_Source\PSoC5/cyfitter_cfg.c **** 	CY_SET_XTND_REG16((void CYFAR *)(CYREG_FASTCLK_PLL_CFG0), 0x1251u);
 283              		.loc 1 239 0
 284 002c 224B     		ldr	r3, .L22+20
 285 002e 1A80     		strh	r2, [r3]	@ movhi
 240:Generated_Source\PSoC5/cyfitter_cfg.c **** 	/* Wait up to 250us for the PLL to lock */
 286              		.loc 1 240 0
 287 0030 41F25122 		movw	r2, #4689
 288 0034 023B     		subs	r3, r3, #2
 289 0036 1A80     		strh	r2, [r3]	@ movhi
 290              	.LVL20:
 242:Generated_Source\PSoC5/cyfitter_cfg.c **** 	for (timeout = 250u / 10u; (timeout > 0u) && (pllLock != 0x03u); timeout--)
 291              		.loc 1 242 0
 292 0038 0024     		movs	r4, #0
 243:Generated_Source\PSoC5/cyfitter_cfg.c **** 	{ 
 293              		.loc 1 243 0
 294 003a 1925     		movs	r5, #25
 295 003c 0CE0     		b	.L17
 296              	.LVL21:
 297              	.L19:
 245:Generated_Source\PSoC5/cyfitter_cfg.c **** 		CyDelayCycles(10u * 48u); /* Delay 10us based on 48MHz clock */
 298              		.loc 1 245 0 discriminator 4
 299 003e 1F4B     		ldr	r3, .L22+24
 300 0040 1B78     		ldrb	r3, [r3]	@ zero_extendqisi2
 301 0042 03F00103 		and	r3, r3, #1
 302 0046 43EA4404 		orr	r4, r3, r4, lsl #1
 303              	.LVL22:
 304 004a 04F00304 		and	r4, r4, #3
 305              	.LVL23:
 246:Generated_Source\PSoC5/cyfitter_cfg.c **** 	}
 306              		.loc 1 246 0 discriminator 4
ARM GAS  C:\Users\jayti\AppData\Local\Temp\ccsaBnuW.s 			page 12


 307 004e 4FF4F070 		mov	r0, #480
 308 0052 FFF7FEFF 		bl	CyDelayCycles
 309              	.LVL24:
 243:Generated_Source\PSoC5/cyfitter_cfg.c **** 	{ 
 310              		.loc 1 243 0 discriminator 4
 311 0056 013D     		subs	r5, r5, #1
 312              	.LVL25:
 313              	.L17:
 243:Generated_Source\PSoC5/cyfitter_cfg.c **** 	{ 
 314              		.loc 1 243 0 is_stmt 0 discriminator 1
 315 0058 0DB1     		cbz	r5, .L18
 243:Generated_Source\PSoC5/cyfitter_cfg.c **** 	{ 
 316              		.loc 1 243 0 discriminator 3
 317 005a 032C     		cmp	r4, #3
 318 005c EFD1     		bne	.L19
 319              	.L18:
 249:Generated_Source\PSoC5/cyfitter_cfg.c **** 	{
 320              		.loc 1 249 0 is_stmt 1
 321 005e 15B9     		cbnz	r5, .L20
 251:Generated_Source\PSoC5/cyfitter_cfg.c **** 	}
 322              		.loc 1 251 0
 323 0060 0320     		movs	r0, #3
 324 0062 FFF7FEFF 		bl	CyClockStartupError
 325              	.LVL26:
 326              	.L20:
 255:Generated_Source\PSoC5/cyfitter_cfg.c **** 	CY_SET_XTND_REG8((void CYFAR *)(CYREG_CLKDIST_MSTR0), 0x07u);
 327              		.loc 1 255 0
 328 0066 164B     		ldr	r3, .L22+28
 329 0068 4FF48072 		mov	r2, #256
 330 006c 1A80     		strh	r2, [r3]	@ movhi
 256:Generated_Source\PSoC5/cyfitter_cfg.c **** 	CY_SET_XTND_REG8((void CYFAR *)(CYREG_CLKDIST_BCFG0), 0x00u);
 331              		.loc 1 256 0
 332 006e 0722     		movs	r2, #7
 333 0070 1A70     		strb	r2, [r3]
 257:Generated_Source\PSoC5/cyfitter_cfg.c **** 	CY_SET_XTND_REG8((void CYFAR *)(CYREG_CLKDIST_BCFG2), 0x48u);
 334              		.loc 1 257 0
 335 0072 0022     		movs	r2, #0
 336 0074 1349     		ldr	r1, .L22+32
 337 0076 0A70     		strb	r2, [r1]
 258:Generated_Source\PSoC5/cyfitter_cfg.c **** 	CY_SET_XTND_REG8((void CYFAR *)(CYREG_CLKDIST_MSTR0), 0x00u);
 338              		.loc 1 258 0
 339 0078 4820     		movs	r0, #72
 340 007a 0231     		adds	r1, r1, #2
 341 007c 0870     		strb	r0, [r1]
 259:Generated_Source\PSoC5/cyfitter_cfg.c **** 	CY_SET_XTND_REG8((void CYFAR *)(CYREG_CLKDIST_LD), 0x02u);
 342              		.loc 1 259 0
 343 007e 1A70     		strb	r2, [r3]
 260:Generated_Source\PSoC5/cyfitter_cfg.c **** 	CY_SET_XTND_REG8((void CYFAR *)(CYREG_CLKDIST_DLY1), 0x04u);
 344              		.loc 1 260 0
 345 0080 0222     		movs	r2, #2
 346 0082 033B     		subs	r3, r3, #3
 347 0084 1A70     		strb	r2, [r3]
 261:Generated_Source\PSoC5/cyfitter_cfg.c **** 
 348              		.loc 1 261 0
 349 0086 0422     		movs	r2, #4
 350 0088 0A33     		adds	r3, r3, #10
 351 008a 1A70     		strb	r2, [r3]
ARM GAS  C:\Users\jayti\AppData\Local\Temp\ccsaBnuW.s 			page 13


 263:Generated_Source\PSoC5/cyfitter_cfg.c **** 	CY_SET_XTND_REG8((void CYFAR *)(CYREG_PM_ACT_CFG0), ((CY_GET_XTND_REG8((void CYFAR *)CYREG_PM_ACT_
 352              		.loc 1 263 0
 353 008c 0E4A     		ldr	r2, .L22+36
 354 008e 1378     		ldrb	r3, [r2]	@ zero_extendqisi2
 355 0090 43F00103 		orr	r3, r3, #1
 356 0094 1370     		strb	r3, [r2]
 264:Generated_Source\PSoC5/cyfitter_cfg.c **** }
 357              		.loc 1 264 0
 358 0096 013A     		subs	r2, r2, #1
 359 0098 1378     		ldrb	r3, [r2]	@ zero_extendqisi2
 360 009a 43F08003 		orr	r3, r3, #128
 361 009e 1370     		strb	r3, [r2]
 362 00a0 38BD     		pop	{r3, r4, r5, pc}
 363              	.LVL27:
 364              	.L23:
 365 00a2 00BF     		.align	2
 366              	.L22:
 367 00a4 9C000048 		.word	1207959708
 368 00a8 00410040 		.word	1073758464
 369 00ac 00430040 		.word	1073758976
 370 00b0 08010049 		.word	1224737032
 371 00b4 A1460040 		.word	1073759905
 372 00b8 22420040 		.word	1073758754
 373 00bc 25420040 		.word	1073758757
 374 00c0 04400040 		.word	1073758212
 375 00c4 06400040 		.word	1073758214
 376 00c8 A1430040 		.word	1073759137
 377              		.cfi_endproc
 378              	.LFE5:
 379              		.size	ClockSetup, .-ClockSetup
 380              		.section	.text.SetAnalogRoutingPumps,"ax",%progbits
 381              		.align	2
 382              		.global	SetAnalogRoutingPumps
 383              		.thumb
 384              		.thumb_func
 385              		.type	SetAnalogRoutingPumps, %function
 386              	SetAnalogRoutingPumps:
 387              	.LFB7:
 303:Generated_Source\PSoC5/cyfitter_cfg.c **** }
 304:Generated_Source\PSoC5/cyfitter_cfg.c **** 
 305:Generated_Source\PSoC5/cyfitter_cfg.c **** 
 306:Generated_Source\PSoC5/cyfitter_cfg.c **** /*******************************************************************************
 307:Generated_Source\PSoC5/cyfitter_cfg.c **** * Function Name: SetAnalogRoutingPumps
 308:Generated_Source\PSoC5/cyfitter_cfg.c **** ********************************************************************************
 309:Generated_Source\PSoC5/cyfitter_cfg.c **** *
 310:Generated_Source\PSoC5/cyfitter_cfg.c **** * Summary:
 311:Generated_Source\PSoC5/cyfitter_cfg.c **** * Enables or disables the analog pumps feeding analog routing switches.
 312:Generated_Source\PSoC5/cyfitter_cfg.c **** * Intended to be called at startup, based on the Vdda system configuration;
 313:Generated_Source\PSoC5/cyfitter_cfg.c **** * may be called during operation when the user informs us that the Vdda voltage
 314:Generated_Source\PSoC5/cyfitter_cfg.c **** * crossed the pump threshold.
 315:Generated_Source\PSoC5/cyfitter_cfg.c **** *
 316:Generated_Source\PSoC5/cyfitter_cfg.c **** * Parameters:
 317:Generated_Source\PSoC5/cyfitter_cfg.c **** *  enabled - 1 to enable the pumps, 0 to disable the pumps
 318:Generated_Source\PSoC5/cyfitter_cfg.c **** *
 319:Generated_Source\PSoC5/cyfitter_cfg.c **** * Return:
 320:Generated_Source\PSoC5/cyfitter_cfg.c **** *  void
 321:Generated_Source\PSoC5/cyfitter_cfg.c **** *
ARM GAS  C:\Users\jayti\AppData\Local\Temp\ccsaBnuW.s 			page 14


 322:Generated_Source\PSoC5/cyfitter_cfg.c **** *******************************************************************************/
 323:Generated_Source\PSoC5/cyfitter_cfg.c **** void SetAnalogRoutingPumps(uint8 enabled)
 324:Generated_Source\PSoC5/cyfitter_cfg.c **** {
 388              		.loc 1 324 0
 389              		.cfi_startproc
 390              		@ args = 0, pretend = 0, frame = 0
 391              		@ frame_needed = 0, uses_anonymous_args = 0
 392              		@ link register save eliminated.
 393              	.LVL28:
 325:Generated_Source\PSoC5/cyfitter_cfg.c **** 	uint8 regValue = CY_GET_XTND_REG8((void CYFAR *)CYREG_PUMP_CR0);
 394              		.loc 1 325 0
 395 0000 054B     		ldr	r3, .L27
 396 0002 1B78     		ldrb	r3, [r3]	@ zero_extendqisi2
 397 0004 DBB2     		uxtb	r3, r3
 398              	.LVL29:
 326:Generated_Source\PSoC5/cyfitter_cfg.c **** 	if (enabled != 0u)
 399              		.loc 1 326 0
 400 0006 10B1     		cbz	r0, .L25
 327:Generated_Source\PSoC5/cyfitter_cfg.c **** 	{
 328:Generated_Source\PSoC5/cyfitter_cfg.c **** 		regValue |= 0x22u;
 401              		.loc 1 328 0
 402 0008 43F02203 		orr	r3, r3, #34
 403              	.LVL30:
 404 000c 01E0     		b	.L26
 405              	.L25:
 329:Generated_Source\PSoC5/cyfitter_cfg.c **** 	}
 330:Generated_Source\PSoC5/cyfitter_cfg.c **** 	else
 331:Generated_Source\PSoC5/cyfitter_cfg.c **** 	{
 332:Generated_Source\PSoC5/cyfitter_cfg.c **** 		regValue &= (uint8)~0x22u;
 406              		.loc 1 332 0
 407 000e 03F0DD03 		and	r3, r3, #221
 408              	.LVL31:
 409              	.L26:
 333:Generated_Source\PSoC5/cyfitter_cfg.c **** 	}
 334:Generated_Source\PSoC5/cyfitter_cfg.c **** 	CY_SET_XTND_REG8((void CYFAR *)CYREG_PUMP_CR0, regValue);
 410              		.loc 1 334 0
 411 0012 014A     		ldr	r2, .L27
 412 0014 1370     		strb	r3, [r2]
 413 0016 7047     		bx	lr
 414              	.L28:
 415              		.align	2
 416              	.L27:
 417 0018 76580040 		.word	1073764470
 418              		.cfi_endproc
 419              	.LFE7:
 420              		.size	SetAnalogRoutingPumps, .-SetAnalogRoutingPumps
 421              		.section	.text.cyfitter_cfg,"ax",%progbits
 422              		.align	2
 423              		.global	cyfitter_cfg
 424              		.thumb
 425              		.thumb_func
 426              		.type	cyfitter_cfg, %function
 427              	cyfitter_cfg:
 428              	.LFB8:
 335:Generated_Source\PSoC5/cyfitter_cfg.c **** }
 336:Generated_Source\PSoC5/cyfitter_cfg.c **** 
 337:Generated_Source\PSoC5/cyfitter_cfg.c **** 
ARM GAS  C:\Users\jayti\AppData\Local\Temp\ccsaBnuW.s 			page 15


 338:Generated_Source\PSoC5/cyfitter_cfg.c **** 
 339:Generated_Source\PSoC5/cyfitter_cfg.c **** 
 340:Generated_Source\PSoC5/cyfitter_cfg.c **** /*******************************************************************************
 341:Generated_Source\PSoC5/cyfitter_cfg.c **** * Function Name: cyfitter_cfg
 342:Generated_Source\PSoC5/cyfitter_cfg.c **** ********************************************************************************
 343:Generated_Source\PSoC5/cyfitter_cfg.c **** * Summary:
 344:Generated_Source\PSoC5/cyfitter_cfg.c **** *  This function is called by the start-up code for the selected device. It
 345:Generated_Source\PSoC5/cyfitter_cfg.c **** *  performs all of the necessary device configuration based on the design
 346:Generated_Source\PSoC5/cyfitter_cfg.c **** *  settings.  This includes settings from the Design Wide Resources (DWR) such
 347:Generated_Source\PSoC5/cyfitter_cfg.c **** *  as Clocks and Pins as well as any component configuration that is necessary.
 348:Generated_Source\PSoC5/cyfitter_cfg.c **** *
 349:Generated_Source\PSoC5/cyfitter_cfg.c **** * Parameters:
 350:Generated_Source\PSoC5/cyfitter_cfg.c **** *   void
 351:Generated_Source\PSoC5/cyfitter_cfg.c **** *
 352:Generated_Source\PSoC5/cyfitter_cfg.c **** * Return:
 353:Generated_Source\PSoC5/cyfitter_cfg.c **** *   void
 354:Generated_Source\PSoC5/cyfitter_cfg.c **** *
 355:Generated_Source\PSoC5/cyfitter_cfg.c **** *******************************************************************************/
 356:Generated_Source\PSoC5/cyfitter_cfg.c **** 
 357:Generated_Source\PSoC5/cyfitter_cfg.c **** void cyfitter_cfg(void)
 358:Generated_Source\PSoC5/cyfitter_cfg.c **** {
 429              		.loc 1 358 0
 430              		.cfi_startproc
 431              		@ args = 0, pretend = 0, frame = 0
 432              		@ frame_needed = 0, uses_anonymous_args = 0
 433 0000 38B5     		push	{r3, r4, r5, lr}
 434              		.cfi_def_cfa_offset 16
 435              		.cfi_offset 3, -16
 436              		.cfi_offset 4, -12
 437              		.cfi_offset 5, -8
 438              		.cfi_offset 14, -4
 359:Generated_Source\PSoC5/cyfitter_cfg.c **** #ifdef CYGlobalIntDisable
 360:Generated_Source\PSoC5/cyfitter_cfg.c **** 	/* Disable interrupts by default. Let user enable if/when they want. */
 361:Generated_Source\PSoC5/cyfitter_cfg.c **** 	CYGlobalIntDisable
 439              		.loc 1 361 0
 440              		.syntax unified
 441              	@ 361 "Generated_Source\PSoC5\cyfitter_cfg.c" 1
 442 0002 72B6     		CPSID   i
 443              	@ 0 "" 2
 362:Generated_Source\PSoC5/cyfitter_cfg.c **** #endif
 363:Generated_Source\PSoC5/cyfitter_cfg.c **** 
 364:Generated_Source\PSoC5/cyfitter_cfg.c **** 	/* Enable/Disable Debug functionality based on settings from System DWR */
 365:Generated_Source\PSoC5/cyfitter_cfg.c **** 	CY_SET_XTND_REG8((void CYFAR *)CYREG_MLOGIC_DEBUG, (CY_GET_XTND_REG8((void CYFAR *)CYREG_MLOGIC_DE
 444              		.loc 1 365 0
 445              		.thumb
 446              		.syntax unified
 447 0004 2B4A     		ldr	r2, .L33
 448 0006 1378     		ldrb	r3, [r2]	@ zero_extendqisi2
 449 0008 43F00403 		orr	r3, r3, #4
 450 000c 1370     		strb	r3, [r2]
 451              	.LVL32:
 452              	.LBB3:
 366:Generated_Source\PSoC5/cyfitter_cfg.c **** 
 367:Generated_Source\PSoC5/cyfitter_cfg.c **** 	{
 368:Generated_Source\PSoC5/cyfitter_cfg.c **** 
 369:Generated_Source\PSoC5/cyfitter_cfg.c **** 		CYPACKED typedef struct {
 370:Generated_Source\PSoC5/cyfitter_cfg.c **** 			void CYFAR *address;
ARM GAS  C:\Users\jayti\AppData\Local\Temp\ccsaBnuW.s 			page 16


 371:Generated_Source\PSoC5/cyfitter_cfg.c **** 			uint16 size;
 372:Generated_Source\PSoC5/cyfitter_cfg.c **** 		} CYPACKED_ATTR cfg_memset_t;
 373:Generated_Source\PSoC5/cyfitter_cfg.c **** 
 374:Generated_Source\PSoC5/cyfitter_cfg.c **** 		static const cfg_memset_t CYCODE cfg_memset_list[] = {
 375:Generated_Source\PSoC5/cyfitter_cfg.c **** 			/* address, size */
 376:Generated_Source\PSoC5/cyfitter_cfg.c **** 			{(void CYFAR *)(CYREG_PRT2_DR), 80u},
 377:Generated_Source\PSoC5/cyfitter_cfg.c **** 			{(void CYFAR *)(CYREG_PRT12_DR), 16u},
 378:Generated_Source\PSoC5/cyfitter_cfg.c **** 			{(void CYFAR *)(CYREG_PRT15_DR), 16u},
 379:Generated_Source\PSoC5/cyfitter_cfg.c **** 			{(void CYFAR *)(CYDEV_UCFG_B0_P0_U0_BASE), 4096u},
 380:Generated_Source\PSoC5/cyfitter_cfg.c **** 			{(void CYFAR *)(CYDEV_UCFG_B1_P2_U0_BASE), 2048u},
 381:Generated_Source\PSoC5/cyfitter_cfg.c **** 			{(void CYFAR *)(CYDEV_UCFG_DSI0_BASE), 2560u},
 382:Generated_Source\PSoC5/cyfitter_cfg.c **** 			{(void CYFAR *)(CYDEV_UCFG_DSI12_BASE), 512u},
 383:Generated_Source\PSoC5/cyfitter_cfg.c **** 			{(void CYFAR *)(CYREG_BCTL0_MDCLK_EN), 32u},
 384:Generated_Source\PSoC5/cyfitter_cfg.c **** 		};
 385:Generated_Source\PSoC5/cyfitter_cfg.c **** 
 386:Generated_Source\PSoC5/cyfitter_cfg.c **** 		uint8 CYDATA i;
 387:Generated_Source\PSoC5/cyfitter_cfg.c **** 
 388:Generated_Source\PSoC5/cyfitter_cfg.c **** 		/* Zero out critical memory blocks before beginning configuration */
 389:Generated_Source\PSoC5/cyfitter_cfg.c **** 		for (i = 0u; i < (sizeof(cfg_memset_list)/sizeof(cfg_memset_list[0])); i++)
 453              		.loc 1 389 0
 454 000e 0024     		movs	r4, #0
 455 0010 0CE0     		b	.L30
 456              	.LVL33:
 457              	.L31:
 458              	.LBB4:
 390:Generated_Source\PSoC5/cyfitter_cfg.c **** 		{
 391:Generated_Source\PSoC5/cyfitter_cfg.c **** 			const cfg_memset_t CYCODE * CYDATA ms = &cfg_memset_list[i];
 392:Generated_Source\PSoC5/cyfitter_cfg.c **** 			CYMEMZERO(ms->address, (size_t)(uint32)(ms->size));
 459              		.loc 1 392 0 discriminator 3
 460 0012 294D     		ldr	r5, .L33+4
 461 0014 6300     		lsls	r3, r4, #1
 462 0016 1919     		adds	r1, r3, r4
 463 0018 4A00     		lsls	r2, r1, #1
 464 001a 1146     		mov	r1, r2
 465 001c 2A44     		add	r2, r2, r5
 466 001e 0846     		mov	r0, r1
 467 0020 9188     		ldrh	r1, [r2, #4]
 468 0022 2858     		ldr	r0, [r5, r0]	@ unaligned
 469 0024 FFF7FEFF 		bl	CYMEMZERO
 470              	.LVL34:
 471              	.LBE4:
 389:Generated_Source\PSoC5/cyfitter_cfg.c **** 		{
 472              		.loc 1 389 0 discriminator 3
 473 0028 0134     		adds	r4, r4, #1
 474              	.LVL35:
 475 002a E4B2     		uxtb	r4, r4
 476              	.LVL36:
 477              	.L30:
 389:Generated_Source\PSoC5/cyfitter_cfg.c **** 		{
 478              		.loc 1 389 0 is_stmt 0 discriminator 1
 479 002c 072C     		cmp	r4, #7
 480 002e F0D9     		bls	.L31
 393:Generated_Source\PSoC5/cyfitter_cfg.c **** 		}
 394:Generated_Source\PSoC5/cyfitter_cfg.c **** 
 395:Generated_Source\PSoC5/cyfitter_cfg.c **** 		cfg_write_bytes32(cy_cfg_addr_table, cy_cfg_data_table);
 481              		.loc 1 395 0 is_stmt 1
 482 0030 2249     		ldr	r1, .L33+8
ARM GAS  C:\Users\jayti\AppData\Local\Temp\ccsaBnuW.s 			page 17


 483 0032 4FF09040 		mov	r0, #1207959552
 484 0036 FFF7FEFF 		bl	cfg_write_bytes32
 485              	.LVL37:
 396:Generated_Source\PSoC5/cyfitter_cfg.c **** 
 397:Generated_Source\PSoC5/cyfitter_cfg.c **** 		/* Perform normal device configuration. Order is not critical for these items. */
 398:Generated_Source\PSoC5/cyfitter_cfg.c **** 		CY_SET_XTND_REG16((void CYFAR *)(CYREG_LUT0_CR), 0x0003u);
 486              		.loc 1 398 0
 487 003a 0322     		movs	r2, #3
 488 003c 204B     		ldr	r3, .L33+12
 489 003e 1A80     		strh	r2, [r3]	@ movhi
 399:Generated_Source\PSoC5/cyfitter_cfg.c **** 
 400:Generated_Source\PSoC5/cyfitter_cfg.c **** 		/* Enable digital routing */
 401:Generated_Source\PSoC5/cyfitter_cfg.c **** 		CY_SET_XTND_REG8((void CYFAR *)CYREG_BCTL0_BANK_CTL, CY_GET_XTND_REG8((void CYFAR *)CYREG_BCTL0_B
 490              		.loc 1 401 0
 491 0040 02F18042 		add	r2, r2, #1073741824
 492 0044 02F5A832 		add	r2, r2, #86016
 493 0048 1378     		ldrb	r3, [r2]	@ zero_extendqisi2
 494 004a 43F00203 		orr	r3, r3, #2
 495 004e 1370     		strb	r3, [r2]
 402:Generated_Source\PSoC5/cyfitter_cfg.c **** 		CY_SET_XTND_REG8((void CYFAR *)CYREG_BCTL1_BANK_CTL, CY_GET_XTND_REG8((void CYFAR *)CYREG_BCTL1_B
 496              		.loc 1 402 0
 497 0050 1032     		adds	r2, r2, #16
 498 0052 1378     		ldrb	r3, [r2]	@ zero_extendqisi2
 499 0054 43F00203 		orr	r3, r3, #2
 500 0058 1370     		strb	r3, [r2]
 403:Generated_Source\PSoC5/cyfitter_cfg.c **** 
 404:Generated_Source\PSoC5/cyfitter_cfg.c **** 		/* Enable UDB array */
 405:Generated_Source\PSoC5/cyfitter_cfg.c **** 		CY_SET_XTND_REG8((void CYFAR *)CYREG_PM_ACT_CFG0, CY_GET_XTND_REG8((void CYFAR *)CYREG_PM_ACT_CFG
 501              		.loc 1 405 0
 502 005a 1A4C     		ldr	r4, .L33+16
 503              	.LVL38:
 504 005c 2378     		ldrb	r3, [r4]	@ zero_extendqisi2
 505 005e 43F04003 		orr	r3, r3, #64
 506 0062 2370     		strb	r3, [r4]
 406:Generated_Source\PSoC5/cyfitter_cfg.c **** 		CY_SET_XTND_REG8((void CYFAR *)CYREG_PM_AVAIL_CR2, CY_GET_XTND_REG8((void CYFAR *)CYREG_PM_AVAIL_
 507              		.loc 1 406 0
 508 0064 A2F58632 		sub	r2, r2, #68608
 509 0068 513A     		subs	r2, r2, #81
 510 006a 1378     		ldrb	r3, [r2]	@ zero_extendqisi2
 511 006c 43F01003 		orr	r3, r3, #16
 512 0070 1370     		strb	r3, [r2]
 513              	.LBE3:
 407:Generated_Source\PSoC5/cyfitter_cfg.c **** 	}
 408:Generated_Source\PSoC5/cyfitter_cfg.c **** 
 409:Generated_Source\PSoC5/cyfitter_cfg.c **** 
 410:Generated_Source\PSoC5/cyfitter_cfg.c **** 	/* Perform second pass device configuration. These items must be configured in specific order afte
 411:Generated_Source\PSoC5/cyfitter_cfg.c **** 	CYCONFIGCPY((void CYFAR *)(CYREG_PRT0_DM0), (const void CYFAR *)(BS_IOPINS0_0_VAL), 8u);
 514              		.loc 1 411 0
 515 0072 0822     		movs	r2, #8
 516 0074 1449     		ldr	r1, .L33+20
 517 0076 1548     		ldr	r0, .L33+24
 518 0078 FFF7FEFF 		bl	CYCONFIGCPY
 519              	.LVL39:
 412:Generated_Source\PSoC5/cyfitter_cfg.c **** 	CYCONFIGCPY((void CYFAR *)(CYREG_PRT1_DM0), (const void CYFAR *)(BS_IOPINS0_1_VAL), 8u);
 520              		.loc 1 412 0
 521 007c 0822     		movs	r2, #8
 522 007e 1449     		ldr	r1, .L33+28
ARM GAS  C:\Users\jayti\AppData\Local\Temp\ccsaBnuW.s 			page 18


 523 0080 1448     		ldr	r0, .L33+32
 524 0082 FFF7FEFF 		bl	CYCONFIGCPY
 525              	.LVL40:
 413:Generated_Source\PSoC5/cyfitter_cfg.c **** 	/* Switch Boost to the precision bandgap reference from its internal reference */
 414:Generated_Source\PSoC5/cyfitter_cfg.c **** 	CY_SET_REG8((void CYXDATA *)CYREG_BOOST_CR2, (CY_GET_REG8((void CYXDATA *)CYREG_BOOST_CR2) | 0x08u
 526              		.loc 1 414 0
 527 0086 144A     		ldr	r2, .L33+36
 528 0088 1378     		ldrb	r3, [r2]	@ zero_extendqisi2
 529 008a 43F00803 		orr	r3, r3, #8
 530 008e 1370     		strb	r3, [r2]
 415:Generated_Source\PSoC5/cyfitter_cfg.c **** 
 416:Generated_Source\PSoC5/cyfitter_cfg.c **** 	/* Set Flash Cycles based on max possible frequency in case a glitch occurs during ClockSetup(). *
 417:Generated_Source\PSoC5/cyfitter_cfg.c **** 	CY_SET_XTND_REG8((void CYFAR *)(CYREG_CACHE_CC_CTL), (((CYDEV_INSTRUCT_CACHE_ENABLED) != 0) ? 0x61
 531              		.loc 1 417 0
 532 0090 124D     		ldr	r5, .L33+40
 533 0092 6123     		movs	r3, #97
 534 0094 2B70     		strb	r3, [r5]
 418:Generated_Source\PSoC5/cyfitter_cfg.c **** 	/* Setup clocks based on selections from Clock DWR */
 419:Generated_Source\PSoC5/cyfitter_cfg.c **** 	ClockSetup();
 535              		.loc 1 419 0
 536 0096 FFF7FEFF 		bl	ClockSetup
 537              	.LVL41:
 420:Generated_Source\PSoC5/cyfitter_cfg.c **** 	/* Set Flash Cycles based on newly configured 24.00MHz Bus Clock. */
 421:Generated_Source\PSoC5/cyfitter_cfg.c **** 	CY_SET_XTND_REG8((void CYFAR *)(CYREG_CACHE_CC_CTL), (((CYDEV_INSTRUCT_CACHE_ENABLED) != 0) ? 0x81
 538              		.loc 1 421 0
 539 009a 8123     		movs	r3, #129
 540 009c 2B70     		strb	r3, [r5]
 422:Generated_Source\PSoC5/cyfitter_cfg.c **** 	CY_SET_XTND_REG8((void CYFAR *)(CYREG_PANTHER_WAITPIPE), 0x01u);
 541              		.loc 1 422 0
 542 009e 0122     		movs	r2, #1
 543 00a0 0F4B     		ldr	r3, .L33+44
 544 00a2 1A70     		strb	r2, [r3]
 423:Generated_Source\PSoC5/cyfitter_cfg.c **** 
 424:Generated_Source\PSoC5/cyfitter_cfg.c **** 	/* Perform basic analog initialization to defaults */
 425:Generated_Source\PSoC5/cyfitter_cfg.c **** 	AnalogSetDefault();
 545              		.loc 1 425 0
 546 00a4 FFF7FEFF 		bl	AnalogSetDefault
 547              	.LVL42:
 426:Generated_Source\PSoC5/cyfitter_cfg.c **** 
 427:Generated_Source\PSoC5/cyfitter_cfg.c **** 	/* Configure alternate active mode */
 428:Generated_Source\PSoC5/cyfitter_cfg.c **** 	CYCONFIGCPY((void CYFAR *)CYDEV_PM_STBY_BASE, (const void CYFAR *)CYDEV_PM_ACT_BASE, 14u);
 548              		.loc 1 428 0
 549 00a8 0E22     		movs	r2, #14
 550 00aa 2146     		mov	r1, r4
 551 00ac 0D48     		ldr	r0, .L33+48
 552 00ae FFF7FEFF 		bl	CYCONFIGCPY
 553              	.LVL43:
 554 00b2 38BD     		pop	{r3, r4, r5, pc}
 555              	.L34:
 556              		.align	2
 557              	.L33:
 558 00b4 E8460040 		.word	1073759976
 559 00b8 00000000 		.word	.LANCHOR0
 560 00bc 40000048 		.word	1207959616
 561 00c0 48580040 		.word	1073764424
 562 00c4 A0430040 		.word	1073759136
 563 00c8 8C000048 		.word	1207959692
ARM GAS  C:\Users\jayti\AppData\Local\Temp\ccsaBnuW.s 			page 19


 564 00cc 02510040 		.word	1073762562
 565 00d0 94000048 		.word	1207959700
 566 00d4 12510040 		.word	1073762578
 567 00d8 22430040 		.word	1073759010
 568 00dc 00480040 		.word	1073760256
 569 00e0 04000840 		.word	1074266116
 570 00e4 B0430040 		.word	1073759152
 571              		.cfi_endproc
 572              	.LFE8:
 573              		.size	cyfitter_cfg, .-cyfitter_cfg
 574              		.section	.rodata
 575              		.align	2
 576              		.set	.LANCHOR0,. + 0
 577              		.type	cfg_memset_list.5013, %object
 578              		.size	cfg_memset_list.5013, 48
 579              	cfg_memset_list.5013:
 580 0000 20510040 		.word	1073762592
 581 0004 5000     		.short	80
 582 0006 C0510040 		.4byte	1073762752
 583 000a 1000     		.short	16
 584 000c F0510040 		.word	1073762800
 585 0010 1000     		.short	16
 586 0012 00000140 		.4byte	1073807360
 587 0016 0010     		.short	4096
 588 0018 00140140 		.word	1073812480
 589 001c 0008     		.short	2048
 590 001e 00400140 		.4byte	1073823744
 591 0022 000A     		.short	2560
 592 0024 004C0140 		.word	1073826816
 593 0028 0002     		.short	512
 594 002a 00500140 		.4byte	1073827840
 595 002e 2000     		.short	32
 596              		.text
 597              	.Letext0:
 598              		.file 2 "c:\\program files (x86)\\cypress\\psoc creator\\4.4\\psoc creator\\import\\gnu\\arm\\5.4.
 599              		.file 3 "Generated_Source\\PSoC5\\cytypes.h"
 600              		.file 4 "Generated_Source\\PSoC5\\CyLib.h"