ARM GAS  C:\Users\jpat614\AppData\Local\Temp\ccjT981H.s 			page 1


   1              		.syntax unified
   2              		.cpu cortex-m3
   3              		.fpu softvfp
   4              		.eabi_attribute 20, 1
   5              		.eabi_attribute 21, 1
   6              		.eabi_attribute 23, 3
   7              		.eabi_attribute 24, 1
   8              		.eabi_attribute 25, 1
   9              		.eabi_attribute 26, 1
  10              		.eabi_attribute 30, 6
  11              		.eabi_attribute 34, 1
  12              		.eabi_attribute 18, 4
  13              		.thumb
  14              		.syntax unified
  15              		.file	"main.c"
  16              		.text
  17              	.Ltext0:
  18              		.cfi_sections	.debug_frame
  19              		.global	ts
  20              		.bss
  21              		.type	ts, %object
  22              		.size	ts, 1
  23              	ts:
  24 0000 00       		.space	1
  25              		.global	ts_enc
  26 0001 00       		.align	1
  27              		.type	ts_enc, %object
  28              		.size	ts_enc, 2
  29              	ts_enc:
  30 0002 0000     		.space	2
  31              		.global	ts_update
  32              		.align	1
  33              		.type	ts_update, %object
  34              		.size	ts_update, 2
  35              	ts_update:
  36 0004 0000     		.space	2
  37              		.global	ts_speed
  38              		.align	1
  39              		.type	ts_speed, %object
  40              		.size	ts_speed, 2
  41              	ts_speed:
  42 0006 0000     		.space	2
  43              		.global	ts_display
  44              		.align	1
  45              		.type	ts_display, %object
  46              		.size	ts_display, 2
  47              	ts_display:
  48 0008 0000     		.space	2
  49              		.global	flag_ts_enc
  50              		.type	flag_ts_enc, %object
  51              		.size	flag_ts_enc, 1
  52              	flag_ts_enc:
  53 000a 00       		.space	1
  54              		.global	flag_ts_update
  55              		.type	flag_ts_update, %object
  56              		.size	flag_ts_update, 1
  57              	flag_ts_update:
ARM GAS  C:\Users\jpat614\AppData\Local\Temp\ccjT981H.s 			page 2


  58 000b 00       		.space	1
  59              		.global	flag_ts_speed
  60              		.type	flag_ts_speed, %object
  61              		.size	flag_ts_speed, 1
  62              	flag_ts_speed:
  63 000c 00       		.space	1
  64              		.global	flag_ts_display
  65              		.type	flag_ts_display, %object
  66              		.size	flag_ts_display, 1
  67              	flag_ts_display:
  68 000d 00       		.space	1
  69              		.global	flag_rx
  70              		.type	flag_rx, %object
  71              		.size	flag_rx, 1
  72              	flag_rx:
  73 000e 00       		.space	1
  74              		.global	flag_packet
  75              		.type	flag_packet, %object
  76              		.size	flag_packet, 1
  77              	flag_packet:
  78 000f 00       		.space	1
  79              		.global	flag_KB_string
  80              		.type	flag_KB_string, %object
  81              		.size	flag_KB_string, 1
  82              	flag_KB_string:
  83 0010 00       		.space	1
  84              		.global	dataready_flag
  85              		.type	dataready_flag, %object
  86              		.size	dataready_flag, 1
  87              	dataready_flag:
  88 0011 00       		.space	1
  89              		.global	flag_rf_transmission_active
  90              		.data
  91              		.type	flag_rf_transmission_active, %object
  92              		.size	flag_rf_transmission_active, 1
  93              	flag_rf_transmission_active:
  94 0000 0A       		.byte	10
  95              		.global	displaystring
  96 0001 000000   		.align	2
  97              		.type	displaystring, %object
  98              		.size	displaystring, 64
  99              	displaystring:
 100 0004 43533330 		.ascii	"CS301 2016\012\000"
 100      31203230 
 100      31360A00 
 101 0010 00000000 		.space	52
 101      00000000 
 101      00000000 
 101      00000000 
 101      00000000 
 102              		.comm	line,64,4
 103              		.comm	entry,64,4
 104              		.comm	usbBuffer,64,4
 105              		.comm	system_state,32,4
 106              		.comm	buffer,64,4
 107              		.global	idac_val
 108              		.type	idac_val, %object
ARM GAS  C:\Users\jpat614\AppData\Local\Temp\ccjT981H.s 			page 3


 109              		.size	idac_val, 1
 110              	idac_val:
 111 0044 64       		.byte	100
 112              		.section	.rodata
 113              		.align	2
 114              	.LC0:
 115 0000 49444143 		.ascii	"IDAC Val: %u, Pin Val: %d \015\012\000"
 115      2056616C 
 115      3A202575 
 115      2C205069 
 115      6E205661 
 116              		.section	.text.main,"ax",%progbits
 117              		.align	2
 118              		.global	main
 119              		.thumb
 120              		.thumb_func
 121              		.type	main, %function
 122              	main:
 123              	.LFB64:
 124              		.file 1 "main.c"
   1:main.c        **** /* ========================================
   2:main.c        ****  * Fully working code: 
   3:main.c        ****  * PWM      : 
   4:main.c        ****  * Encoder  : 
   5:main.c        ****  * ADC      :
   6:main.c        ****  * USB      : port displays speed and position.
   7:main.c        ****  * CMD: "PW xx"
   8:main.c        ****  * Copyright Univ of Auckland, 2016
   9:main.c        ****  * All Rights Reserved
  10:main.c        ****  * UNPUBLISHED, LICENSED SOFTWARE.
  11:main.c        ****  *
  12:main.c        ****  * CONFIDENTIAL AND PROPRIETARY INFORMATION
  13:main.c        ****  * WHICH IS THE PROPERTY OF Univ of Auckland.
  14:main.c        ****  *
  15:main.c        ****  * ========================================
  16:main.c        **** */
  17:main.c        **** #include <stdio.h>
  18:main.c        **** #include <string.h>
  19:main.c        **** #include <stdlib.h>
  20:main.c        **** #include <project.h>
  21:main.c        **** //* ========================================
  22:main.c        **** #include "defines.h"
  23:main.c        **** #include "vars.h"
  24:main.c        **** //* ========================================
  25:main.c        **** void usbPutString(char *s);
  26:main.c        **** void usbPutChar(char c);
  27:main.c        **** void handle_usb();
  28:main.c        **** //* ========================================
  29:main.c        **** 
  30:main.c        **** char buffer[64];
  31:main.c        **** uint8_t idac_val = 100;
  32:main.c        **** 
  33:main.c        **** int main()
  34:main.c        **** {
 125              		.loc 1 34 0
 126              		.cfi_startproc
 127              		@ args = 0, pretend = 0, frame = 8
ARM GAS  C:\Users\jpat614\AppData\Local\Temp\ccjT981H.s 			page 4


 128              		@ frame_needed = 1, uses_anonymous_args = 0
 129 0000 80B5     		push	{r7, lr}
 130              		.cfi_def_cfa_offset 8
 131              		.cfi_offset 7, -8
 132              		.cfi_offset 14, -4
 133 0002 82B0     		sub	sp, sp, #8
 134              		.cfi_def_cfa_offset 16
 135 0004 00AF     		add	r7, sp, #0
 136              		.cfi_def_cfa_register 7
  35:main.c        **** // --------------------------------    
  36:main.c        **** // ----- INITIALIZATIONS ----------
  37:main.c        ****     CYGlobalIntEnable;
 137              		.loc 1 37 0
 138              		.syntax unified
 139              	@ 37 "main.c" 1
 140 0006 62B6     		CPSIE   i
 141              	@ 0 "" 2
  38:main.c        **** 
  39:main.c        **** // ------USB SETUP ----------------    
  40:main.c        **** #ifdef USE_USB    
  41:main.c        ****     USBUART_Start(0,USBUART_5V_OPERATION);
 142              		.loc 1 41 0
 143              		.thumb
 144              		.syntax unified
 145 0008 0121     		movs	r1, #1
 146 000a 0020     		movs	r0, #0
 147 000c FFF7FEFF 		bl	USBUART_Start
  42:main.c        **** #endif        
  43:main.c        ****         
  44:main.c        ****     RF_BT_SELECT_Write(0);
 148              		.loc 1 44 0
 149 0010 0020     		movs	r0, #0
 150 0012 FFF7FEFF 		bl	RF_BT_SELECT_Write
  45:main.c        ****     Opamp_1_Start();
 151              		.loc 1 45 0
 152 0016 FFF7FEFF 		bl	Opamp_1_Start
  46:main.c        ****     IDAC8_1_Start();
 153              		.loc 1 46 0
 154 001a FFF7FEFF 		bl	IDAC8_1_Start
  47:main.c        ****     //IDAC8_1_SetValue(idac_val);
  48:main.c        ****     ADC_SAR_1_Start();
 155              		.loc 1 48 0
 156 001e FFF7FEFF 		bl	ADC_SAR_1_Start
  49:main.c        ****     ADC_SAR_1_StartConvert();
 157              		.loc 1 49 0
 158 0022 FFF7FEFF 		bl	ADC_SAR_1_StartConvert
 159              	.L5:
  50:main.c        ****     for(;;)
  51:main.c        ****     {
  52:main.c        ****         /* Place your application code here. */
  53:main.c        ****         //usbPutString(displaystring);
  54:main.c        ****         handle_usb();
 160              		.loc 1 54 0
 161 0026 FFF7FEFF 		bl	handle_usb
  55:main.c        ****         if (flag_KB_string == 1)
 162              		.loc 1 55 0
 163 002a 154B     		ldr	r3, .L6
ARM GAS  C:\Users\jpat614\AppData\Local\Temp\ccjT981H.s 			page 5


 164 002c 1B78     		ldrb	r3, [r3]	@ zero_extendqisi2
 165 002e 012B     		cmp	r3, #1
 166 0030 05D1     		bne	.L2
  56:main.c        ****         {
  57:main.c        ****             usbPutString(line);
 167              		.loc 1 57 0
 168 0032 1448     		ldr	r0, .L6+4
 169 0034 FFF7FEFF 		bl	usbPutString
  58:main.c        ****             flag_KB_string = 0;
 170              		.loc 1 58 0
 171 0038 114B     		ldr	r3, .L6
 172 003a 0022     		movs	r2, #0
 173 003c 1A70     		strb	r2, [r3]
 174              	.L2:
 175              	.LBB2:
  59:main.c        ****         }      
  60:main.c        ****         // IDAC Sweep
  61:main.c        ****         for (int i = 0; i < 256; i++) {
 176              		.loc 1 61 0
 177 003e 0023     		movs	r3, #0
 178 0040 7B60     		str	r3, [r7, #4]
 179 0042 15E0     		b	.L3
 180              	.L4:
 181              	.LBB3:
  62:main.c        ****             IDAC8_1_SetValue(i);
 182              		.loc 1 62 0 discriminator 3
 183 0044 7B68     		ldr	r3, [r7, #4]
 184 0046 DBB2     		uxtb	r3, r3
 185 0048 1846     		mov	r0, r3
 186 004a FFF7FEFF 		bl	IDAC8_1_SetValue
  63:main.c        ****             // Get ADC value and transmit to screen
  64:main.c        ****             int16_t data = ADC_SAR_1_GetResult16(); 
 187              		.loc 1 64 0 discriminator 3
 188 004e FFF7FEFF 		bl	ADC_SAR_1_GetResult16
 189 0052 0346     		mov	r3, r0
 190 0054 7B80     		strh	r3, [r7, #2]	@ movhi
  65:main.c        ****             sprintf(buffer, "IDAC Val: %u, Pin Val: %d \r\n", i, data);
 191              		.loc 1 65 0 discriminator 3
 192 0056 B7F90230 		ldrsh	r3, [r7, #2]
 193 005a 7A68     		ldr	r2, [r7, #4]
 194 005c 0A49     		ldr	r1, .L6+8
 195 005e 0B48     		ldr	r0, .L6+12
 196 0060 FFF7FEFF 		bl	sprintf
  66:main.c        ****             usbPutString(buffer);
 197              		.loc 1 66 0 discriminator 3
 198 0064 0948     		ldr	r0, .L6+12
 199 0066 FFF7FEFF 		bl	usbPutString
 200              	.LBE3:
  61:main.c        ****             IDAC8_1_SetValue(i);
 201              		.loc 1 61 0 discriminator 3
 202 006a 7B68     		ldr	r3, [r7, #4]
 203 006c 0133     		adds	r3, r3, #1
 204 006e 7B60     		str	r3, [r7, #4]
 205              	.L3:
  61:main.c        ****             IDAC8_1_SetValue(i);
 206              		.loc 1 61 0 is_stmt 0 discriminator 1
 207 0070 7B68     		ldr	r3, [r7, #4]
ARM GAS  C:\Users\jpat614\AppData\Local\Temp\ccjT981H.s 			page 6


 208 0072 FF2B     		cmp	r3, #255
 209 0074 E6DD     		ble	.L4
 210              	.LBE2:
  67:main.c        ****        
  68:main.c        ****         }
  69:main.c        ****         CyDelay(5000);
 211              		.loc 1 69 0 is_stmt 1
 212 0076 41F28830 		movw	r0, #5000
 213 007a FFF7FEFF 		bl	CyDelay
  70:main.c        ****     }   
 214              		.loc 1 70 0
 215 007e D2E7     		b	.L5
 216              	.L7:
 217              		.align	2
 218              	.L6:
 219 0080 00000000 		.word	flag_KB_string
 220 0084 00000000 		.word	line
 221 0088 00000000 		.word	.LC0
 222 008c 00000000 		.word	buffer
 223              		.cfi_endproc
 224              	.LFE64:
 225              		.size	main, .-main
 226              		.section	.text.usbPutString,"ax",%progbits
 227              		.align	2
 228              		.global	usbPutString
 229              		.thumb
 230              		.thumb_func
 231              		.type	usbPutString, %function
 232              	usbPutString:
 233              	.LFB65:
  71:main.c        **** }
  72:main.c        **** //* ========================================
  73:main.c        **** void usbPutString(char *s)
  74:main.c        **** {
 234              		.loc 1 74 0
 235              		.cfi_startproc
 236              		@ args = 0, pretend = 0, frame = 8
 237              		@ frame_needed = 1, uses_anonymous_args = 0
 238 0000 80B5     		push	{r7, lr}
 239              		.cfi_def_cfa_offset 8
 240              		.cfi_offset 7, -8
 241              		.cfi_offset 14, -4
 242 0002 82B0     		sub	sp, sp, #8
 243              		.cfi_def_cfa_offset 16
 244 0004 00AF     		add	r7, sp, #0
 245              		.cfi_def_cfa_register 7
 246 0006 7860     		str	r0, [r7, #4]
  75:main.c        **** // !! Assumes that *s is a string with allocated space >=64 chars     
  76:main.c        **** //  Since USB implementation retricts data packets to 64 chars, this function truncates the
  77:main.c        **** //  length to 62 char (63rd char is a '!')
  78:main.c        **** 
  79:main.c        **** #ifdef USE_USB     
  80:main.c        ****     while (USBUART_CDCIsReady() == 0);
 247              		.loc 1 80 0
 248 0008 00BF     		nop
 249              	.L9:
 250              		.loc 1 80 0 is_stmt 0 discriminator 1
ARM GAS  C:\Users\jpat614\AppData\Local\Temp\ccjT981H.s 			page 7


 251 000a FFF7FEFF 		bl	USBUART_CDCIsReady
 252 000e 0346     		mov	r3, r0
 253 0010 002B     		cmp	r3, #0
 254 0012 FAD0     		beq	.L9
  81:main.c        ****     s[63]='\0';
 255              		.loc 1 81 0 is_stmt 1
 256 0014 7B68     		ldr	r3, [r7, #4]
 257 0016 3F33     		adds	r3, r3, #63
 258 0018 0022     		movs	r2, #0
 259 001a 1A70     		strb	r2, [r3]
  82:main.c        ****     s[62]='!';
 260              		.loc 1 82 0
 261 001c 7B68     		ldr	r3, [r7, #4]
 262 001e 3E33     		adds	r3, r3, #62
 263 0020 2122     		movs	r2, #33
 264 0022 1A70     		strb	r2, [r3]
  83:main.c        ****     USBUART_PutData((uint8*)s,strlen(s));
 265              		.loc 1 83 0
 266 0024 7868     		ldr	r0, [r7, #4]
 267 0026 FFF7FEFF 		bl	strlen
 268 002a 0346     		mov	r3, r0
 269 002c 9BB2     		uxth	r3, r3
 270 002e 1946     		mov	r1, r3
 271 0030 7868     		ldr	r0, [r7, #4]
 272 0032 FFF7FEFF 		bl	USBUART_PutData
  84:main.c        **** #endif
  85:main.c        **** }
 273              		.loc 1 85 0
 274 0036 00BF     		nop
 275 0038 0837     		adds	r7, r7, #8
 276              		.cfi_def_cfa_offset 8
 277 003a BD46     		mov	sp, r7
 278              		.cfi_def_cfa_register 13
 279              		@ sp needed
 280 003c 80BD     		pop	{r7, pc}
 281              		.cfi_endproc
 282              	.LFE65:
 283              		.size	usbPutString, .-usbPutString
 284 003e 00BF     		.section	.text.usbPutChar,"ax",%progbits
 285              		.align	2
 286              		.global	usbPutChar
 287              		.thumb
 288              		.thumb_func
 289              		.type	usbPutChar, %function
 290              	usbPutChar:
 291              	.LFB66:
  86:main.c        **** //* ========================================
  87:main.c        **** void usbPutChar(char c)
  88:main.c        **** {
 292              		.loc 1 88 0
 293              		.cfi_startproc
 294              		@ args = 0, pretend = 0, frame = 8
 295              		@ frame_needed = 1, uses_anonymous_args = 0
 296 0000 80B5     		push	{r7, lr}
 297              		.cfi_def_cfa_offset 8
 298              		.cfi_offset 7, -8
 299              		.cfi_offset 14, -4
ARM GAS  C:\Users\jpat614\AppData\Local\Temp\ccjT981H.s 			page 8


 300 0002 82B0     		sub	sp, sp, #8
 301              		.cfi_def_cfa_offset 16
 302 0004 00AF     		add	r7, sp, #0
 303              		.cfi_def_cfa_register 7
 304 0006 0346     		mov	r3, r0
 305 0008 FB71     		strb	r3, [r7, #7]
  89:main.c        **** #ifdef USE_USB     
  90:main.c        ****     while (USBUART_CDCIsReady() == 0);
 306              		.loc 1 90 0
 307 000a 00BF     		nop
 308              	.L11:
 309              		.loc 1 90 0 is_stmt 0 discriminator 1
 310 000c FFF7FEFF 		bl	USBUART_CDCIsReady
 311 0010 0346     		mov	r3, r0
 312 0012 002B     		cmp	r3, #0
 313 0014 FAD0     		beq	.L11
  91:main.c        ****     USBUART_PutChar(c);
 314              		.loc 1 91 0 is_stmt 1
 315 0016 FB79     		ldrb	r3, [r7, #7]	@ zero_extendqisi2
 316 0018 1846     		mov	r0, r3
 317 001a FFF7FEFF 		bl	USBUART_PutChar
  92:main.c        **** #endif    
  93:main.c        **** }
 318              		.loc 1 93 0
 319 001e 00BF     		nop
 320 0020 0837     		adds	r7, r7, #8
 321              		.cfi_def_cfa_offset 8
 322 0022 BD46     		mov	sp, r7
 323              		.cfi_def_cfa_register 13
 324              		@ sp needed
 325 0024 80BD     		pop	{r7, pc}
 326              		.cfi_endproc
 327              	.LFE66:
 328              		.size	usbPutChar, .-usbPutChar
 329 0026 00BF     		.section	.text.handle_usb,"ax",%progbits
 330              		.align	2
 331              		.global	handle_usb
 332              		.thumb
 333              		.thumb_func
 334              		.type	handle_usb, %function
 335              	handle_usb:
 336              	.LFB67:
  94:main.c        **** //* ========================================
  95:main.c        **** void handle_usb()
  96:main.c        **** {
 337              		.loc 1 96 0
 338              		.cfi_startproc
 339              		@ args = 0, pretend = 0, frame = 8
 340              		@ frame_needed = 1, uses_anonymous_args = 0
 341 0000 80B5     		push	{r7, lr}
 342              		.cfi_def_cfa_offset 8
 343              		.cfi_offset 7, -8
 344              		.cfi_offset 14, -4
 345 0002 82B0     		sub	sp, sp, #8
 346              		.cfi_def_cfa_offset 16
 347 0004 00AF     		add	r7, sp, #0
 348              		.cfi_def_cfa_register 7
ARM GAS  C:\Users\jpat614\AppData\Local\Temp\ccjT981H.s 			page 9


  97:main.c        ****     // handles input at terminal, echos it back to the terminal
  98:main.c        ****     // turn echo OFF, key emulation: only CR
  99:main.c        ****     // entered string is made available in 'line' and 'flag_KB_string' is set
 100:main.c        ****     
 101:main.c        ****     static uint8 usbStarted = FALSE;
 102:main.c        ****     static uint16 usbBufCount = 0;
 103:main.c        ****     uint8 c; 
 104:main.c        ****     
 105:main.c        **** 
 106:main.c        ****     if (!usbStarted)
 349              		.loc 1 106 0
 350 0006 2B4B     		ldr	r3, .L22
 351 0008 1B78     		ldrb	r3, [r3]	@ zero_extendqisi2
 352 000a 002B     		cmp	r3, #0
 353 000c 0AD1     		bne	.L13
 107:main.c        ****     {
 108:main.c        ****         if (USBUART_GetConfiguration())
 354              		.loc 1 108 0
 355 000e FFF7FEFF 		bl	USBUART_GetConfiguration
 356 0012 0346     		mov	r3, r0
 357 0014 002B     		cmp	r3, #0
 358 0016 49D0     		beq	.L21
 109:main.c        ****         {
 110:main.c        ****             USBUART_CDC_Init();
 359              		.loc 1 110 0
 360 0018 FFF7FEFF 		bl	USBUART_CDC_Init
 111:main.c        ****             usbStarted = TRUE;
 361              		.loc 1 111 0
 362 001c 254B     		ldr	r3, .L22
 363 001e 0122     		movs	r2, #1
 364 0020 1A70     		strb	r2, [r3]
 112:main.c        ****         }
 113:main.c        ****     }
 114:main.c        ****     else
 115:main.c        ****     {
 116:main.c        ****         if (USBUART_DataIsReady() != 0)
 117:main.c        ****         {  
 118:main.c        ****             c = USBUART_GetChar();
 119:main.c        **** 
 120:main.c        ****             if ((c == 13) || (c == 10))
 121:main.c        ****             {
 122:main.c        **** //                if (usbBufCount > 0)
 123:main.c        ****                 {
 124:main.c        ****                     entry[usbBufCount]= '\0';
 125:main.c        ****                     strcpy(line,entry);
 126:main.c        ****                     usbBufCount = 0;
 127:main.c        ****                     flag_KB_string = 1;
 128:main.c        ****                 }
 129:main.c        ****             }
 130:main.c        ****             else 
 131:main.c        ****             {
 132:main.c        ****                 if (((c == CHAR_BACKSP) || (c == CHAR_DEL) ) && (usbBufCount > 0) )
 133:main.c        ****                     usbBufCount--;
 134:main.c        ****                 else
 135:main.c        ****                 {
 136:main.c        ****                     if (usbBufCount > (BUF_SIZE-2) ) // one less else strtok triggers a crash
 137:main.c        ****                     {
ARM GAS  C:\Users\jpat614\AppData\Local\Temp\ccjT981H.s 			page 10


 138:main.c        ****                        USBUART_PutChar('!');        
 139:main.c        ****                     }
 140:main.c        ****                     else
 141:main.c        ****                         entry[usbBufCount++] = c;  
 142:main.c        ****                 }  
 143:main.c        ****             }
 144:main.c        ****         }
 145:main.c        ****     }    
 146:main.c        **** }
 365              		.loc 1 146 0
 366 0022 43E0     		b	.L21
 367              	.L13:
 116:main.c        ****         {  
 368              		.loc 1 116 0
 369 0024 FFF7FEFF 		bl	USBUART_DataIsReady
 370 0028 0346     		mov	r3, r0
 371 002a 002B     		cmp	r3, #0
 372 002c 3ED0     		beq	.L21
 118:main.c        **** 
 373              		.loc 1 118 0
 374 002e FFF7FEFF 		bl	USBUART_GetChar
 375 0032 0346     		mov	r3, r0
 376 0034 FB71     		strb	r3, [r7, #7]
 120:main.c        ****             {
 377              		.loc 1 120 0
 378 0036 FB79     		ldrb	r3, [r7, #7]	@ zero_extendqisi2
 379 0038 0D2B     		cmp	r3, #13
 380 003a 02D0     		beq	.L16
 120:main.c        ****             {
 381              		.loc 1 120 0 is_stmt 0 discriminator 1
 382 003c FB79     		ldrb	r3, [r7, #7]	@ zero_extendqisi2
 383 003e 0A2B     		cmp	r3, #10
 384 0040 10D1     		bne	.L17
 385              	.L16:
 124:main.c        ****                     strcpy(line,entry);
 386              		.loc 1 124 0 is_stmt 1
 387 0042 1D4B     		ldr	r3, .L22+4
 388 0044 1B88     		ldrh	r3, [r3]
 389 0046 1A46     		mov	r2, r3
 390 0048 1C4B     		ldr	r3, .L22+8
 391 004a 0021     		movs	r1, #0
 392 004c 9954     		strb	r1, [r3, r2]
 125:main.c        ****                     usbBufCount = 0;
 393              		.loc 1 125 0
 394 004e 1B49     		ldr	r1, .L22+8
 395 0050 1B48     		ldr	r0, .L22+12
 396 0052 FFF7FEFF 		bl	strcpy
 126:main.c        ****                     flag_KB_string = 1;
 397              		.loc 1 126 0
 398 0056 184B     		ldr	r3, .L22+4
 399 0058 0022     		movs	r2, #0
 400 005a 1A80     		strh	r2, [r3]	@ movhi
 127:main.c        ****                 }
 401              		.loc 1 127 0
 402 005c 194B     		ldr	r3, .L22+16
 403 005e 0122     		movs	r2, #1
 404 0060 1A70     		strb	r2, [r3]
ARM GAS  C:\Users\jpat614\AppData\Local\Temp\ccjT981H.s 			page 11


 405 0062 23E0     		b	.L15
 406              	.L17:
 132:main.c        ****                     usbBufCount--;
 407              		.loc 1 132 0
 408 0064 FB79     		ldrb	r3, [r7, #7]	@ zero_extendqisi2
 409 0066 082B     		cmp	r3, #8
 410 0068 02D0     		beq	.L18
 132:main.c        ****                     usbBufCount--;
 411              		.loc 1 132 0 is_stmt 0 discriminator 2
 412 006a FB79     		ldrb	r3, [r7, #7]	@ zero_extendqisi2
 413 006c 7F2B     		cmp	r3, #127
 414 006e 0AD1     		bne	.L19
 415              	.L18:
 132:main.c        ****                     usbBufCount--;
 416              		.loc 1 132 0 discriminator 3
 417 0070 114B     		ldr	r3, .L22+4
 418 0072 1B88     		ldrh	r3, [r3]
 419 0074 002B     		cmp	r3, #0
 420 0076 06D0     		beq	.L19
 133:main.c        ****                 else
 421              		.loc 1 133 0 is_stmt 1
 422 0078 0F4B     		ldr	r3, .L22+4
 423 007a 1B88     		ldrh	r3, [r3]
 424 007c 013B     		subs	r3, r3, #1
 425 007e 9AB2     		uxth	r2, r3
 426 0080 0D4B     		ldr	r3, .L22+4
 427 0082 1A80     		strh	r2, [r3]	@ movhi
 428 0084 12E0     		b	.L15
 429              	.L19:
 136:main.c        ****                     {
 430              		.loc 1 136 0
 431 0086 0C4B     		ldr	r3, .L22+4
 432 0088 1B88     		ldrh	r3, [r3]
 433 008a 3E2B     		cmp	r3, #62
 434 008c 03D9     		bls	.L20
 138:main.c        ****                     }
 435              		.loc 1 138 0
 436 008e 2120     		movs	r0, #33
 437 0090 FFF7FEFF 		bl	USBUART_PutChar
 438              		.loc 1 146 0
 439 0094 0AE0     		b	.L21
 440              	.L20:
 141:main.c        ****                 }  
 441              		.loc 1 141 0
 442 0096 084B     		ldr	r3, .L22+4
 443 0098 1B88     		ldrh	r3, [r3]
 444 009a 5A1C     		adds	r2, r3, #1
 445 009c 91B2     		uxth	r1, r2
 446 009e 064A     		ldr	r2, .L22+4
 447 00a0 1180     		strh	r1, [r2]	@ movhi
 448 00a2 1946     		mov	r1, r3
 449 00a4 054A     		ldr	r2, .L22+8
 450 00a6 FB79     		ldrb	r3, [r7, #7]
 451 00a8 5354     		strb	r3, [r2, r1]
 452              		.loc 1 146 0
 453 00aa FFE7     		b	.L21
 454              	.L15:
ARM GAS  C:\Users\jpat614\AppData\Local\Temp\ccjT981H.s 			page 12


 455              	.L21:
 456 00ac 00BF     		nop
 457 00ae 0837     		adds	r7, r7, #8
 458              		.cfi_def_cfa_offset 8
 459 00b0 BD46     		mov	sp, r7
 460              		.cfi_def_cfa_register 13
 461              		@ sp needed
 462 00b2 80BD     		pop	{r7, pc}
 463              	.L23:
 464              		.align	2
 465              	.L22:
 466 00b4 12000000 		.word	usbStarted.7597
 467 00b8 14000000 		.word	usbBufCount.7598
 468 00bc 00000000 		.word	entry
 469 00c0 00000000 		.word	line
 470 00c4 00000000 		.word	flag_KB_string
 471              		.cfi_endproc
 472              	.LFE67:
 473              		.size	handle_usb, .-handle_usb
 474              		.bss
 475              	usbStarted.7597:
 476 0012 00       		.space	1
 477 0013 00       		.align	1
 478              	usbBufCount.7598:
 479 0014 0000     		.space	2
 480              		.text
 481              	.Letext0:
 482              		.file 2 "c:\\program files (x86)\\cypress\\psoc creator\\4.2\\psoc creator\\import\\gnu\\arm\\5.4.
 483              		.file 3 "c:\\program files (x86)\\cypress\\psoc creator\\4.2\\psoc creator\\import\\gnu\\arm\\5.4.
 484              		.file 4 "Generated_Source\\PSoC5/cytypes.h"
 485              		.file 5 "vars.h"
 486              		.file 6 "Generated_Source\\PSoC5/core_cm3.h"