ARM GAS  C:\Users\ash750\AppData\Local\Temp\ccoL50IN.s 			page 1


   1              		.syntax unified
   2              		.cpu cortex-m3
   3              		.fpu softvfp
   4              		.eabi_attribute 20, 1
   5              		.eabi_attribute 21, 1
   6              		.eabi_attribute 23, 3
   7              		.eabi_attribute 24, 1
   8              		.eabi_attribute 25, 1
   9              		.eabi_attribute 26, 1
  10              		.eabi_attribute 30, 6
  11              		.eabi_attribute 34, 1
  12              		.eabi_attribute 18, 4
  13              		.thumb
  14              		.syntax unified
  15              		.file	"CapSense_CSD_CSHL.c"
  16              		.text
  17              	.Ltext0:
  18              		.cfi_sections	.debug_frame
  19              		.comm	CapSense_CSD_sensorBaseline,2,4
  20              		.comm	CapSense_CSD_sensorBaselineLow,1,4
  21              		.comm	CapSense_CSD_sensorSignal,2,4
  22              		.comm	CapSense_CSD_sensorOnMask,1,4
  23              		.comm	CapSense_CSD_lowBaselineResetCnt,1,4
  24              		.global	CapSense_CSD_fingerThreshold
  25              		.data
  26              		.align	2
  27              		.type	CapSense_CSD_fingerThreshold, %object
  28              		.size	CapSense_CSD_fingerThreshold, 2
  29              	CapSense_CSD_fingerThreshold:
  30 0000 6400     		.short	100
  31              		.global	CapSense_CSD_noiseThreshold
  32 0002 0000     		.align	2
  33              		.type	CapSense_CSD_noiseThreshold, %object
  34              		.size	CapSense_CSD_noiseThreshold, 2
  35              	CapSense_CSD_noiseThreshold:
  36 0004 1400     		.short	20
  37              		.global	CapSense_CSD_hysteresis
  38 0006 0000     		.align	2
  39              		.type	CapSense_CSD_hysteresis, %object
  40              		.size	CapSense_CSD_hysteresis, 2
  41              	CapSense_CSD_hysteresis:
  42 0008 0A00     		.short	10
  43              		.global	CapSense_CSD_debounce
  44 000a 0000     		.align	2
  45              		.type	CapSense_CSD_debounce, %object
  46              		.size	CapSense_CSD_debounce, 1
  47              	CapSense_CSD_debounce:
  48 000c 05       		.byte	5
  49              		.global	CapSense_CSD_debounceCounter
  50              		.bss
  51              		.align	2
  52              		.type	CapSense_CSD_debounceCounter, %object
  53              		.size	CapSense_CSD_debounceCounter, 2
  54              	CapSense_CSD_debounceCounter:
  55 0000 0000     		.space	2
  56              		.global	CapSense_CSD_rawDataIndex
  57              		.section	.rodata
ARM GAS  C:\Users\ash750\AppData\Local\Temp\ccoL50IN.s 			page 2


  58              		.align	2
  59              		.type	CapSense_CSD_rawDataIndex, %object
  60              		.size	CapSense_CSD_rawDataIndex, 1
  61              	CapSense_CSD_rawDataIndex:
  62 0000 00       		.space	1
  63              		.global	CapSense_CSD_numberOfSensors
  64 0001 000000   		.align	2
  65              		.type	CapSense_CSD_numberOfSensors, %object
  66              		.size	CapSense_CSD_numberOfSensors, 1
  67              	CapSense_CSD_numberOfSensors:
  68 0004 01       		.byte	1
  69              		.section	.text.CapSense_CSD_BaseInit,"ax",%progbits
  70              		.align	2
  71              		.global	CapSense_CSD_BaseInit
  72              		.thumb
  73              		.thumb_func
  74              		.type	CapSense_CSD_BaseInit, %function
  75              	CapSense_CSD_BaseInit:
  76              	.LFB0:
  77              		.file 1 "Generated_Source\\PSoC5\\CapSense_CSD_CSHL.c"
   1:Generated_Source\PSoC5/CapSense_CSD_CSHL.c **** /*******************************************************************************
   2:Generated_Source\PSoC5/CapSense_CSD_CSHL.c **** * File Name: CapSense_CSD_CSHL.c
   3:Generated_Source\PSoC5/CapSense_CSD_CSHL.c **** * Version 3.50
   4:Generated_Source\PSoC5/CapSense_CSD_CSHL.c **** *
   5:Generated_Source\PSoC5/CapSense_CSD_CSHL.c **** * Description:
   6:Generated_Source\PSoC5/CapSense_CSD_CSHL.c **** *  This file provides the source code to the High Level APIs for the CapSesne
   7:Generated_Source\PSoC5/CapSense_CSD_CSHL.c **** *  CSD component.
   8:Generated_Source\PSoC5/CapSense_CSD_CSHL.c **** *
   9:Generated_Source\PSoC5/CapSense_CSD_CSHL.c **** * Note:
  10:Generated_Source\PSoC5/CapSense_CSD_CSHL.c **** *
  11:Generated_Source\PSoC5/CapSense_CSD_CSHL.c **** ********************************************************************************
  12:Generated_Source\PSoC5/CapSense_CSD_CSHL.c **** * Copyright 2008-2013, Cypress Semiconductor Corporation.  All rights reserved.
  13:Generated_Source\PSoC5/CapSense_CSD_CSHL.c **** * You may use this file only in accordance with the license, terms, conditions,
  14:Generated_Source\PSoC5/CapSense_CSD_CSHL.c **** * disclaimers, and limitations in the end user license agreement accompanying
  15:Generated_Source\PSoC5/CapSense_CSD_CSHL.c **** * the software package with which this file was provided.
  16:Generated_Source\PSoC5/CapSense_CSD_CSHL.c **** *******************************************************************************/
  17:Generated_Source\PSoC5/CapSense_CSD_CSHL.c **** 
  18:Generated_Source\PSoC5/CapSense_CSD_CSHL.c **** #include "CapSense_CSD_CSHL.h"
  19:Generated_Source\PSoC5/CapSense_CSD_CSHL.c **** 
  20:Generated_Source\PSoC5/CapSense_CSD_CSHL.c **** /* Storage of filters data */
  21:Generated_Source\PSoC5/CapSense_CSD_CSHL.c **** #if ( (CapSense_CSD_RAW_FILTER_MASK & CapSense_CSD_MEDIAN_FILTER) | \
  22:Generated_Source\PSoC5/CapSense_CSD_CSHL.c ****       (CapSense_CSD_RAW_FILTER_MASK & CapSense_CSD_AVERAGING_FILTER) )
  23:Generated_Source\PSoC5/CapSense_CSD_CSHL.c **** 
  24:Generated_Source\PSoC5/CapSense_CSD_CSHL.c ****     uint16 CapSense_CSD_rawFilterData1[CapSense_CSD_TOTAL_SENSOR_COUNT];
  25:Generated_Source\PSoC5/CapSense_CSD_CSHL.c ****     uint16 CapSense_CSD_rawFilterData2[CapSense_CSD_TOTAL_SENSOR_COUNT];
  26:Generated_Source\PSoC5/CapSense_CSD_CSHL.c **** 
  27:Generated_Source\PSoC5/CapSense_CSD_CSHL.c **** #elif ( (CapSense_CSD_RAW_FILTER_MASK & CapSense_CSD_IIR2_FILTER)   | \
  28:Generated_Source\PSoC5/CapSense_CSD_CSHL.c ****         (CapSense_CSD_RAW_FILTER_MASK & CapSense_CSD_IIR4_FILTER)   | \
  29:Generated_Source\PSoC5/CapSense_CSD_CSHL.c ****         (CapSense_CSD_RAW_FILTER_MASK & CapSense_CSD_JITTER_FILTER) | \
  30:Generated_Source\PSoC5/CapSense_CSD_CSHL.c ****         (CapSense_CSD_RAW_FILTER_MASK & CapSense_CSD_IIR8_FILTER)   | \
  31:Generated_Source\PSoC5/CapSense_CSD_CSHL.c ****         (CapSense_CSD_RAW_FILTER_MASK & CapSense_CSD_IIR16_FILTER) )
  32:Generated_Source\PSoC5/CapSense_CSD_CSHL.c ****         
  33:Generated_Source\PSoC5/CapSense_CSD_CSHL.c ****     uint16 CapSense_CSD_rawFilterData1[CapSense_CSD_TOTAL_SENSOR_COUNT];
  34:Generated_Source\PSoC5/CapSense_CSD_CSHL.c **** 
  35:Generated_Source\PSoC5/CapSense_CSD_CSHL.c **** #else
  36:Generated_Source\PSoC5/CapSense_CSD_CSHL.c ****     /* No Raw filters */
  37:Generated_Source\PSoC5/CapSense_CSD_CSHL.c **** #endif  /* ( (CapSense_CSD_RAW_FILTER_MASK & CapSense_CSD_MEDIAN_FILTER) || \
ARM GAS  C:\Users\ash750\AppData\Local\Temp\ccoL50IN.s 			page 3


  38:Generated_Source\PSoC5/CapSense_CSD_CSHL.c ****         *    (CapSense_CSD_RAW_FILTER_MASK & CapSense_CSD_AVERAGING_FILTER) )
  39:Generated_Source\PSoC5/CapSense_CSD_CSHL.c ****         */
  40:Generated_Source\PSoC5/CapSense_CSD_CSHL.c **** 
  41:Generated_Source\PSoC5/CapSense_CSD_CSHL.c **** uint16 CapSense_CSD_sensorBaseline[CapSense_CSD_TOTAL_SENSOR_COUNT];
  42:Generated_Source\PSoC5/CapSense_CSD_CSHL.c **** uint8 CapSense_CSD_sensorBaselineLow[CapSense_CSD_TOTAL_SENSOR_COUNT];
  43:Generated_Source\PSoC5/CapSense_CSD_CSHL.c **** uint16 CapSense_CSD_sensorSignal[CapSense_CSD_TOTAL_SENSOR_COUNT];
  44:Generated_Source\PSoC5/CapSense_CSD_CSHL.c **** uint8 CapSense_CSD_sensorOnMask[(((CapSense_CSD_TOTAL_SENSOR_COUNT - 1u) / 8u) + 1u)];
  45:Generated_Source\PSoC5/CapSense_CSD_CSHL.c **** 
  46:Generated_Source\PSoC5/CapSense_CSD_CSHL.c **** uint8 CapSense_CSD_lowBaselineResetCnt[CapSense_CSD_TOTAL_SENSOR_COUNT];
  47:Generated_Source\PSoC5/CapSense_CSD_CSHL.c **** 
  48:Generated_Source\PSoC5/CapSense_CSD_CSHL.c **** uint16 CapSense_CSD_fingerThreshold[] = {
  49:Generated_Source\PSoC5/CapSense_CSD_CSHL.c ****     100u, 
  50:Generated_Source\PSoC5/CapSense_CSD_CSHL.c **** };
  51:Generated_Source\PSoC5/CapSense_CSD_CSHL.c **** 
  52:Generated_Source\PSoC5/CapSense_CSD_CSHL.c **** uint16 CapSense_CSD_noiseThreshold[] = {
  53:Generated_Source\PSoC5/CapSense_CSD_CSHL.c ****     20u, 
  54:Generated_Source\PSoC5/CapSense_CSD_CSHL.c **** };
  55:Generated_Source\PSoC5/CapSense_CSD_CSHL.c **** 
  56:Generated_Source\PSoC5/CapSense_CSD_CSHL.c **** uint16 CapSense_CSD_hysteresis[] = {
  57:Generated_Source\PSoC5/CapSense_CSD_CSHL.c ****     10u, 
  58:Generated_Source\PSoC5/CapSense_CSD_CSHL.c **** };
  59:Generated_Source\PSoC5/CapSense_CSD_CSHL.c **** 
  60:Generated_Source\PSoC5/CapSense_CSD_CSHL.c **** uint8 CapSense_CSD_debounce[] = {
  61:Generated_Source\PSoC5/CapSense_CSD_CSHL.c ****     5u, 
  62:Generated_Source\PSoC5/CapSense_CSD_CSHL.c **** };
  63:Generated_Source\PSoC5/CapSense_CSD_CSHL.c **** 
  64:Generated_Source\PSoC5/CapSense_CSD_CSHL.c **** uint8 CapSense_CSD_debounceCounter[] = {
  65:Generated_Source\PSoC5/CapSense_CSD_CSHL.c ****     0u, 0u, 
  66:Generated_Source\PSoC5/CapSense_CSD_CSHL.c **** };
  67:Generated_Source\PSoC5/CapSense_CSD_CSHL.c **** 
  68:Generated_Source\PSoC5/CapSense_CSD_CSHL.c **** const uint8 CYCODE CapSense_CSD_rawDataIndex[] = {
  69:Generated_Source\PSoC5/CapSense_CSD_CSHL.c ****     0u, /* Button0__BTN */
  70:Generated_Source\PSoC5/CapSense_CSD_CSHL.c **** 
  71:Generated_Source\PSoC5/CapSense_CSD_CSHL.c **** };
  72:Generated_Source\PSoC5/CapSense_CSD_CSHL.c **** 
  73:Generated_Source\PSoC5/CapSense_CSD_CSHL.c **** const uint8 CYCODE CapSense_CSD_numberOfSensors[] = {
  74:Generated_Source\PSoC5/CapSense_CSD_CSHL.c ****     1u, /* Button0__BTN */
  75:Generated_Source\PSoC5/CapSense_CSD_CSHL.c **** 
  76:Generated_Source\PSoC5/CapSense_CSD_CSHL.c **** };
  77:Generated_Source\PSoC5/CapSense_CSD_CSHL.c **** 
  78:Generated_Source\PSoC5/CapSense_CSD_CSHL.c **** 
  79:Generated_Source\PSoC5/CapSense_CSD_CSHL.c **** 
  80:Generated_Source\PSoC5/CapSense_CSD_CSHL.c **** 
  81:Generated_Source\PSoC5/CapSense_CSD_CSHL.c **** /*******************************************************************************
  82:Generated_Source\PSoC5/CapSense_CSD_CSHL.c **** * Function Name: CapSense_CSD_BaseInit
  83:Generated_Source\PSoC5/CapSense_CSD_CSHL.c **** ********************************************************************************
  84:Generated_Source\PSoC5/CapSense_CSD_CSHL.c **** *
  85:Generated_Source\PSoC5/CapSense_CSD_CSHL.c **** * Summary:
  86:Generated_Source\PSoC5/CapSense_CSD_CSHL.c **** *  Loads the CapSense_CSD_sensorBaseline[sensor] array element with an 
  87:Generated_Source\PSoC5/CapSense_CSD_CSHL.c **** *  initial value which is equal to raw count value. 
  88:Generated_Source\PSoC5/CapSense_CSD_CSHL.c **** *  Resets to zero CapSense_CSD_sensorBaselineLow[sensor] and 
  89:Generated_Source\PSoC5/CapSense_CSD_CSHL.c **** *  CapSense_CSD_sensorSignal[sensor] array element.
  90:Generated_Source\PSoC5/CapSense_CSD_CSHL.c **** *  Loads CapSense_CSD_debounceCounter[sensor] array element with initial 
  91:Generated_Source\PSoC5/CapSense_CSD_CSHL.c **** *  value equal CapSense_CSD_debounce[].
  92:Generated_Source\PSoC5/CapSense_CSD_CSHL.c **** *  Loads the CapSense_CSD_rawFilterData2[sensor] and 
  93:Generated_Source\PSoC5/CapSense_CSD_CSHL.c **** *  CapSense_CSD_rawFilterData2[sensor] array element with an 
  94:Generated_Source\PSoC5/CapSense_CSD_CSHL.c **** *  initial value which is equal raw count value if raw data filter is enabled.
ARM GAS  C:\Users\ash750\AppData\Local\Temp\ccoL50IN.s 			page 4


  95:Generated_Source\PSoC5/CapSense_CSD_CSHL.c **** *
  96:Generated_Source\PSoC5/CapSense_CSD_CSHL.c **** * Parameters:
  97:Generated_Source\PSoC5/CapSense_CSD_CSHL.c **** *  sensor:  Sensor number.
  98:Generated_Source\PSoC5/CapSense_CSD_CSHL.c **** *
  99:Generated_Source\PSoC5/CapSense_CSD_CSHL.c **** * Return:
 100:Generated_Source\PSoC5/CapSense_CSD_CSHL.c **** *  None
 101:Generated_Source\PSoC5/CapSense_CSD_CSHL.c **** *
 102:Generated_Source\PSoC5/CapSense_CSD_CSHL.c **** * Global Variables:
 103:Generated_Source\PSoC5/CapSense_CSD_CSHL.c **** *  CapSense_CSD_sensorBaseline[]    - used to store baseline value.
 104:Generated_Source\PSoC5/CapSense_CSD_CSHL.c **** *  CapSense_CSD_sensorBaselineLow[] - used to store fraction byte of 
 105:Generated_Source\PSoC5/CapSense_CSD_CSHL.c **** *  baseline value.
 106:Generated_Source\PSoC5/CapSense_CSD_CSHL.c **** *  CapSense_CSD_sensorSignal[]      - used to store diffence between 
 107:Generated_Source\PSoC5/CapSense_CSD_CSHL.c **** *  current value of raw data and previous value of baseline.
 108:Generated_Source\PSoC5/CapSense_CSD_CSHL.c **** *  CapSense_CSD_debounceCounter[]   - used to store current debounce 
 109:Generated_Source\PSoC5/CapSense_CSD_CSHL.c **** *  counter of sensor. Widget which has this parameter are buttons, matrix 
 110:Generated_Source\PSoC5/CapSense_CSD_CSHL.c **** *  buttons, proximity, guard. All other widgets haven't debounce parameter
 111:Generated_Source\PSoC5/CapSense_CSD_CSHL.c **** *  and use the last element of this array with value 0 (it means no debounce).
 112:Generated_Source\PSoC5/CapSense_CSD_CSHL.c **** *  CapSense_CSD_rawFilterData1[]    - used to store previous sample of 
 113:Generated_Source\PSoC5/CapSense_CSD_CSHL.c **** *  any enabled raw data filter.
 114:Generated_Source\PSoC5/CapSense_CSD_CSHL.c **** *  CapSense_CSD_rawFilterData2[]    - used to store before previous sample
 115:Generated_Source\PSoC5/CapSense_CSD_CSHL.c **** *  of enabled raw data filter. Only required for median or average filters.
 116:Generated_Source\PSoC5/CapSense_CSD_CSHL.c **** *
 117:Generated_Source\PSoC5/CapSense_CSD_CSHL.c **** * Reentrant:
 118:Generated_Source\PSoC5/CapSense_CSD_CSHL.c **** *  No
 119:Generated_Source\PSoC5/CapSense_CSD_CSHL.c **** *
 120:Generated_Source\PSoC5/CapSense_CSD_CSHL.c **** *******************************************************************************/
 121:Generated_Source\PSoC5/CapSense_CSD_CSHL.c **** void CapSense_CSD_BaseInit(uint8 sensor) 
 122:Generated_Source\PSoC5/CapSense_CSD_CSHL.c **** {
  78              		.loc 1 122 0
  79              		.cfi_startproc
  80              		@ args = 0, pretend = 0, frame = 16
  81              		@ frame_needed = 1, uses_anonymous_args = 0
  82              		@ link register save eliminated.
  83 0000 80B4     		push	{r7}
  84              		.cfi_def_cfa_offset 4
  85              		.cfi_offset 7, -4
  86 0002 85B0     		sub	sp, sp, #20
  87              		.cfi_def_cfa_offset 24
  88 0004 00AF     		add	r7, sp, #0
  89              		.cfi_def_cfa_register 7
  90 0006 0346     		mov	r3, r0
  91 0008 FB71     		strb	r3, [r7, #7]
 123:Generated_Source\PSoC5/CapSense_CSD_CSHL.c ****     #if ((CapSense_CSD_TOTAL_BUTTONS_COUNT) || (CapSense_CSD_TOTAL_MATRIX_BUTTONS_COUNT) || \
 124:Generated_Source\PSoC5/CapSense_CSD_CSHL.c ****          (CapSense_CSD_TOTAL_GENERICS_COUNT))
 125:Generated_Source\PSoC5/CapSense_CSD_CSHL.c ****         uint8 widget = CapSense_CSD_widgetNumber[sensor];
  92              		.loc 1 125 0
  93 000a FB79     		ldrb	r3, [r7, #7]	@ zero_extendqisi2
  94 000c 0F4A     		ldr	r2, .L2
  95 000e D35C     		ldrb	r3, [r2, r3]
  96 0010 FB73     		strb	r3, [r7, #15]
 126:Generated_Source\PSoC5/CapSense_CSD_CSHL.c ****     #endif /* ((CapSense_CSD_TOTAL_MATRIX_BUTTONS_COUNT) || (CapSense_CSD_TOTAL_MATRIX_BUTTONS_COUN
 127:Generated_Source\PSoC5/CapSense_CSD_CSHL.c ****     
 128:Generated_Source\PSoC5/CapSense_CSD_CSHL.c ****     #if (CapSense_CSD_TOTAL_MATRIX_BUTTONS_COUNT)
 129:Generated_Source\PSoC5/CapSense_CSD_CSHL.c ****         uint8 debounceIndex;
 130:Generated_Source\PSoC5/CapSense_CSD_CSHL.c ****     #endif  /* (CapSense_CSD_TOTAL_MATRIX_BUTTONS_COUNT) */
 131:Generated_Source\PSoC5/CapSense_CSD_CSHL.c ****     
 132:Generated_Source\PSoC5/CapSense_CSD_CSHL.c ****     #if (CapSense_CSD_TOTAL_GENERICS_COUNT)
ARM GAS  C:\Users\ash750\AppData\Local\Temp\ccoL50IN.s 			page 5


 133:Generated_Source\PSoC5/CapSense_CSD_CSHL.c ****         /* Exclude generic widget */
 134:Generated_Source\PSoC5/CapSense_CSD_CSHL.c ****         if(widget < CapSense_CSD_END_OF_WIDGETS_INDEX)
 135:Generated_Source\PSoC5/CapSense_CSD_CSHL.c ****         {
 136:Generated_Source\PSoC5/CapSense_CSD_CSHL.c ****     #endif  /* CapSense_CSD_TOTAL_GENERICS_COUNT */
 137:Generated_Source\PSoC5/CapSense_CSD_CSHL.c ****     
 138:Generated_Source\PSoC5/CapSense_CSD_CSHL.c ****     /* Initialize Baseline */
 139:Generated_Source\PSoC5/CapSense_CSD_CSHL.c ****     CapSense_CSD_sensorBaseline[sensor] = CapSense_CSD_sensorRaw[sensor];
  97              		.loc 1 139 0
  98 0012 FB79     		ldrb	r3, [r7, #7]	@ zero_extendqisi2
  99 0014 FA79     		ldrb	r2, [r7, #7]	@ zero_extendqisi2
 100 0016 0E49     		ldr	r1, .L2+4
 101 0018 31F81210 		ldrh	r1, [r1, r2, lsl #1]
 102 001c 0D4A     		ldr	r2, .L2+8
 103 001e 22F81310 		strh	r1, [r2, r3, lsl #1]	@ movhi
 140:Generated_Source\PSoC5/CapSense_CSD_CSHL.c ****     CapSense_CSD_sensorBaselineLow[sensor] = 0u;
 104              		.loc 1 140 0
 105 0022 FB79     		ldrb	r3, [r7, #7]	@ zero_extendqisi2
 106 0024 0C4A     		ldr	r2, .L2+12
 107 0026 0021     		movs	r1, #0
 108 0028 D154     		strb	r1, [r2, r3]
 141:Generated_Source\PSoC5/CapSense_CSD_CSHL.c ****     CapSense_CSD_sensorSignal[sensor] = 0u;
 109              		.loc 1 141 0
 110 002a FB79     		ldrb	r3, [r7, #7]	@ zero_extendqisi2
 111 002c 0B4A     		ldr	r2, .L2+16
 112 002e 0021     		movs	r1, #0
 113 0030 22F81310 		strh	r1, [r2, r3, lsl #1]	@ movhi
 142:Generated_Source\PSoC5/CapSense_CSD_CSHL.c ****         
 143:Generated_Source\PSoC5/CapSense_CSD_CSHL.c ****     CapSense_CSD_debounceCounter[widget] =  CapSense_CSD_debounce[widget];
 114              		.loc 1 143 0
 115 0034 FB7B     		ldrb	r3, [r7, #15]	@ zero_extendqisi2
 116 0036 FA7B     		ldrb	r2, [r7, #15]	@ zero_extendqisi2
 117 0038 0949     		ldr	r1, .L2+20
 118 003a 895C     		ldrb	r1, [r1, r2]	@ zero_extendqisi2
 119 003c 094A     		ldr	r2, .L2+24
 120 003e D154     		strb	r1, [r2, r3]
 144:Generated_Source\PSoC5/CapSense_CSD_CSHL.c **** 
 145:Generated_Source\PSoC5/CapSense_CSD_CSHL.c ****     
 146:Generated_Source\PSoC5/CapSense_CSD_CSHL.c ****     #if ((CapSense_CSD_RAW_FILTER_MASK & CapSense_CSD_MEDIAN_FILTER) |\
 147:Generated_Source\PSoC5/CapSense_CSD_CSHL.c ****          (CapSense_CSD_RAW_FILTER_MASK & CapSense_CSD_AVERAGING_FILTER))
 148:Generated_Source\PSoC5/CapSense_CSD_CSHL.c **** 
 149:Generated_Source\PSoC5/CapSense_CSD_CSHL.c ****         CapSense_CSD_rawFilterData1[sensor] = CapSense_CSD_sensorRaw[sensor];
 150:Generated_Source\PSoC5/CapSense_CSD_CSHL.c ****         CapSense_CSD_rawFilterData2[sensor] = CapSense_CSD_sensorRaw[sensor];
 151:Generated_Source\PSoC5/CapSense_CSD_CSHL.c ****     
 152:Generated_Source\PSoC5/CapSense_CSD_CSHL.c ****     #elif ((CapSense_CSD_RAW_FILTER_MASK & CapSense_CSD_IIR2_FILTER) |\
 153:Generated_Source\PSoC5/CapSense_CSD_CSHL.c ****            (CapSense_CSD_RAW_FILTER_MASK & CapSense_CSD_IIR4_FILTER) |\
 154:Generated_Source\PSoC5/CapSense_CSD_CSHL.c ****            (CapSense_CSD_RAW_FILTER_MASK & CapSense_CSD_JITTER_FILTER) |\
 155:Generated_Source\PSoC5/CapSense_CSD_CSHL.c ****            (CapSense_CSD_RAW_FILTER_MASK & CapSense_CSD_IIR8_FILTER) |\
 156:Generated_Source\PSoC5/CapSense_CSD_CSHL.c ****            (CapSense_CSD_RAW_FILTER_MASK & CapSense_CSD_IIR16_FILTER))
 157:Generated_Source\PSoC5/CapSense_CSD_CSHL.c ****             
 158:Generated_Source\PSoC5/CapSense_CSD_CSHL.c ****         CapSense_CSD_rawFilterData1[sensor] = CapSense_CSD_sensorRaw[sensor];
 159:Generated_Source\PSoC5/CapSense_CSD_CSHL.c ****     
 160:Generated_Source\PSoC5/CapSense_CSD_CSHL.c ****     #else
 161:Generated_Source\PSoC5/CapSense_CSD_CSHL.c ****         /* No Raw filters */
 162:Generated_Source\PSoC5/CapSense_CSD_CSHL.c ****     #endif  /* ((CapSense_CSD_RAW_FILTER_MASK & CapSense_CSD_MEDIAN_FILTER) | \
 163:Generated_Source\PSoC5/CapSense_CSD_CSHL.c ****             *   (CapSense_CSD_RAW_FILTER_MASK & CapSense_CSD_AVERAGING_FILTER))
 164:Generated_Source\PSoC5/CapSense_CSD_CSHL.c ****             */
 165:Generated_Source\PSoC5/CapSense_CSD_CSHL.c ****     
ARM GAS  C:\Users\ash750\AppData\Local\Temp\ccoL50IN.s 			page 6


 166:Generated_Source\PSoC5/CapSense_CSD_CSHL.c ****     #if (CapSense_CSD_TOTAL_GENERICS_COUNT)
 167:Generated_Source\PSoC5/CapSense_CSD_CSHL.c ****         /* Exclude generic widget */
 168:Generated_Source\PSoC5/CapSense_CSD_CSHL.c ****         }
 169:Generated_Source\PSoC5/CapSense_CSD_CSHL.c ****     #endif  /* CapSense_CSD_TOTAL_GENERICS_COUNT */
 170:Generated_Source\PSoC5/CapSense_CSD_CSHL.c **** }
 121              		.loc 1 170 0
 122 0040 00BF     		nop
 123 0042 1437     		adds	r7, r7, #20
 124              		.cfi_def_cfa_offset 4
 125 0044 BD46     		mov	sp, r7
 126              		.cfi_def_cfa_register 13
 127              		@ sp needed
 128 0046 80BC     		pop	{r7}
 129              		.cfi_restore 7
 130              		.cfi_def_cfa_offset 0
 131 0048 7047     		bx	lr
 132              	.L3:
 133 004a 00BF     		.align	2
 134              	.L2:
 135 004c 00000000 		.word	CapSense_CSD_widgetNumber
 136 0050 00000000 		.word	CapSense_CSD_sensorRaw
 137 0054 00000000 		.word	CapSense_CSD_sensorBaseline
 138 0058 00000000 		.word	CapSense_CSD_sensorBaselineLow
 139 005c 00000000 		.word	CapSense_CSD_sensorSignal
 140 0060 00000000 		.word	CapSense_CSD_debounce
 141 0064 00000000 		.word	CapSense_CSD_debounceCounter
 142              		.cfi_endproc
 143              	.LFE0:
 144              		.size	CapSense_CSD_BaseInit, .-CapSense_CSD_BaseInit
 145              		.section	.text.CapSense_CSD_InitializeSensorBaseline,"ax",%progbits
 146              		.align	2
 147              		.global	CapSense_CSD_InitializeSensorBaseline
 148              		.thumb
 149              		.thumb_func
 150              		.type	CapSense_CSD_InitializeSensorBaseline, %function
 151              	CapSense_CSD_InitializeSensorBaseline:
 152              	.LFB1:
 171:Generated_Source\PSoC5/CapSense_CSD_CSHL.c **** 
 172:Generated_Source\PSoC5/CapSense_CSD_CSHL.c **** 
 173:Generated_Source\PSoC5/CapSense_CSD_CSHL.c **** /*******************************************************************************
 174:Generated_Source\PSoC5/CapSense_CSD_CSHL.c **** * Function Name: CapSense_CSD_InitializeSensorBaseline
 175:Generated_Source\PSoC5/CapSense_CSD_CSHL.c **** ********************************************************************************
 176:Generated_Source\PSoC5/CapSense_CSD_CSHL.c **** *
 177:Generated_Source\PSoC5/CapSense_CSD_CSHL.c **** * Summary:
 178:Generated_Source\PSoC5/CapSense_CSD_CSHL.c **** *  Loads the CapSense_CSD_sensorBaseline[sensor] array element with an 
 179:Generated_Source\PSoC5/CapSense_CSD_CSHL.c **** *  initial value by scanning the selected sensor (one channel design) or pair 
 180:Generated_Source\PSoC5/CapSense_CSD_CSHL.c **** *  of sensors (two channels designs). The raw count value is copied into the 
 181:Generated_Source\PSoC5/CapSense_CSD_CSHL.c **** *  baseline array for each sensor. The raw data filters are initialized if 
 182:Generated_Source\PSoC5/CapSense_CSD_CSHL.c **** *  enabled.
 183:Generated_Source\PSoC5/CapSense_CSD_CSHL.c **** *
 184:Generated_Source\PSoC5/CapSense_CSD_CSHL.c **** * Parameters:
 185:Generated_Source\PSoC5/CapSense_CSD_CSHL.c **** *  sensor:  Sensor number.
 186:Generated_Source\PSoC5/CapSense_CSD_CSHL.c **** *
 187:Generated_Source\PSoC5/CapSense_CSD_CSHL.c **** * Return:
 188:Generated_Source\PSoC5/CapSense_CSD_CSHL.c **** *  None
 189:Generated_Source\PSoC5/CapSense_CSD_CSHL.c **** *
 190:Generated_Source\PSoC5/CapSense_CSD_CSHL.c **** * Reentrant:
ARM GAS  C:\Users\ash750\AppData\Local\Temp\ccoL50IN.s 			page 7


 191:Generated_Source\PSoC5/CapSense_CSD_CSHL.c **** *  No
 192:Generated_Source\PSoC5/CapSense_CSD_CSHL.c **** *
 193:Generated_Source\PSoC5/CapSense_CSD_CSHL.c **** *******************************************************************************/
 194:Generated_Source\PSoC5/CapSense_CSD_CSHL.c **** void CapSense_CSD_InitializeSensorBaseline(uint8 sensor)
 195:Generated_Source\PSoC5/CapSense_CSD_CSHL.c ****                           
 196:Generated_Source\PSoC5/CapSense_CSD_CSHL.c **** {
 153              		.loc 1 196 0
 154              		.cfi_startproc
 155              		@ args = 0, pretend = 0, frame = 8
 156              		@ frame_needed = 1, uses_anonymous_args = 0
 157 0000 80B5     		push	{r7, lr}
 158              		.cfi_def_cfa_offset 8
 159              		.cfi_offset 7, -8
 160              		.cfi_offset 14, -4
 161 0002 82B0     		sub	sp, sp, #8
 162              		.cfi_def_cfa_offset 16
 163 0004 00AF     		add	r7, sp, #0
 164              		.cfi_def_cfa_register 7
 165 0006 0346     		mov	r3, r0
 166 0008 FB71     		strb	r3, [r7, #7]
 197:Generated_Source\PSoC5/CapSense_CSD_CSHL.c ****     /* Scan sensor */
 198:Generated_Source\PSoC5/CapSense_CSD_CSHL.c ****     CapSense_CSD_ScanSensor(sensor);
 167              		.loc 1 198 0
 168 000a FB79     		ldrb	r3, [r7, #7]	@ zero_extendqisi2
 169 000c 1846     		mov	r0, r3
 170 000e FFF7FEFF 		bl	CapSense_CSD_ScanSensor
 199:Generated_Source\PSoC5/CapSense_CSD_CSHL.c ****     while(CapSense_CSD_IsBusy() != 0u)
 171              		.loc 1 199 0
 172 0012 00BF     		nop
 173              	.L5:
 174              		.loc 1 199 0 is_stmt 0 discriminator 1
 175 0014 FFF7FEFF 		bl	CapSense_CSD_IsBusy
 176 0018 0346     		mov	r3, r0
 177 001a 002B     		cmp	r3, #0
 178 001c FAD1     		bne	.L5
 200:Generated_Source\PSoC5/CapSense_CSD_CSHL.c ****     {
 201:Generated_Source\PSoC5/CapSense_CSD_CSHL.c ****         /* Wait while busy */
 202:Generated_Source\PSoC5/CapSense_CSD_CSHL.c ****     }
 203:Generated_Source\PSoC5/CapSense_CSD_CSHL.c ****     
 204:Generated_Source\PSoC5/CapSense_CSD_CSHL.c ****     #if (CapSense_CSD_DESIGN_TYPE == CapSense_CSD_ONE_CHANNEL_DESIGN)
 205:Generated_Source\PSoC5/CapSense_CSD_CSHL.c ****         /* Initialize Baseline, Signal and debounce counters */       
 206:Generated_Source\PSoC5/CapSense_CSD_CSHL.c ****         CapSense_CSD_BaseInit(sensor);
 179              		.loc 1 206 0 is_stmt 1
 180 001e FB79     		ldrb	r3, [r7, #7]	@ zero_extendqisi2
 181 0020 1846     		mov	r0, r3
 182 0022 FFF7FEFF 		bl	CapSense_CSD_BaseInit
 207:Generated_Source\PSoC5/CapSense_CSD_CSHL.c ****         
 208:Generated_Source\PSoC5/CapSense_CSD_CSHL.c ****     #else
 209:Generated_Source\PSoC5/CapSense_CSD_CSHL.c ****     
 210:Generated_Source\PSoC5/CapSense_CSD_CSHL.c ****         if(sensor < CapSense_CSD_TOTAL_SENSOR_COUNT__CH0)
 211:Generated_Source\PSoC5/CapSense_CSD_CSHL.c ****         {
 212:Generated_Source\PSoC5/CapSense_CSD_CSHL.c ****             /* Initialize Baseline, Signal and debounce counters */ 
 213:Generated_Source\PSoC5/CapSense_CSD_CSHL.c ****             CapSense_CSD_BaseInit(sensor);
 214:Generated_Source\PSoC5/CapSense_CSD_CSHL.c ****         }
 215:Generated_Source\PSoC5/CapSense_CSD_CSHL.c ****         
 216:Generated_Source\PSoC5/CapSense_CSD_CSHL.c ****         if(sensor < CapSense_CSD_TOTAL_SENSOR_COUNT__CH1)
 217:Generated_Source\PSoC5/CapSense_CSD_CSHL.c ****         {
ARM GAS  C:\Users\ash750\AppData\Local\Temp\ccoL50IN.s 			page 8


 218:Generated_Source\PSoC5/CapSense_CSD_CSHL.c ****             /* Initialize Baseline, Signal and debounce counters */
 219:Generated_Source\PSoC5/CapSense_CSD_CSHL.c ****             CapSense_CSD_BaseInit(sensor + CapSense_CSD_TOTAL_SENSOR_COUNT__CH0);
 220:Generated_Source\PSoC5/CapSense_CSD_CSHL.c ****         }
 221:Generated_Source\PSoC5/CapSense_CSD_CSHL.c ****     
 222:Generated_Source\PSoC5/CapSense_CSD_CSHL.c ****     #endif  /* (CapSense_CSD_DESIGN_TYPE == CapSense_CSD_ONE_CHANNEL_DESIGN) */
 223:Generated_Source\PSoC5/CapSense_CSD_CSHL.c **** }
 183              		.loc 1 223 0
 184 0026 00BF     		nop
 185 0028 0837     		adds	r7, r7, #8
 186              		.cfi_def_cfa_offset 8
 187 002a BD46     		mov	sp, r7
 188              		.cfi_def_cfa_register 13
 189              		@ sp needed
 190 002c 80BD     		pop	{r7, pc}
 191              		.cfi_endproc
 192              	.LFE1:
 193              		.size	CapSense_CSD_InitializeSensorBaseline, .-CapSense_CSD_InitializeSensorBaseline
 194 002e 00BF     		.section	.text.CapSense_CSD_InitializeAllBaselines,"ax",%progbits
 195              		.align	2
 196              		.global	CapSense_CSD_InitializeAllBaselines
 197              		.thumb
 198              		.thumb_func
 199              		.type	CapSense_CSD_InitializeAllBaselines, %function
 200              	CapSense_CSD_InitializeAllBaselines:
 201              	.LFB2:
 224:Generated_Source\PSoC5/CapSense_CSD_CSHL.c **** 
 225:Generated_Source\PSoC5/CapSense_CSD_CSHL.c **** 
 226:Generated_Source\PSoC5/CapSense_CSD_CSHL.c **** /*******************************************************************************
 227:Generated_Source\PSoC5/CapSense_CSD_CSHL.c **** * Function Name: CapSense_CSD_InitializeAllBaselines
 228:Generated_Source\PSoC5/CapSense_CSD_CSHL.c **** ********************************************************************************
 229:Generated_Source\PSoC5/CapSense_CSD_CSHL.c **** *
 230:Generated_Source\PSoC5/CapSense_CSD_CSHL.c **** * Summary:
 231:Generated_Source\PSoC5/CapSense_CSD_CSHL.c **** *  Uses the CapSense_CSD_InitializeSensorBaseline function to loads the 
 232:Generated_Source\PSoC5/CapSense_CSD_CSHL.c **** *  CapSense_CSD_sensorBaseline[] array with an initial values by scanning 
 233:Generated_Source\PSoC5/CapSense_CSD_CSHL.c **** *  all sensors. The raw count values are copied into the baseline array for 
 234:Generated_Source\PSoC5/CapSense_CSD_CSHL.c **** *  all sensors. The raw data filters are initialized if enabled.
 235:Generated_Source\PSoC5/CapSense_CSD_CSHL.c **** *
 236:Generated_Source\PSoC5/CapSense_CSD_CSHL.c **** * Parameters:
 237:Generated_Source\PSoC5/CapSense_CSD_CSHL.c **** *  None
 238:Generated_Source\PSoC5/CapSense_CSD_CSHL.c **** *
 239:Generated_Source\PSoC5/CapSense_CSD_CSHL.c **** * Return:
 240:Generated_Source\PSoC5/CapSense_CSD_CSHL.c **** *  None
 241:Generated_Source\PSoC5/CapSense_CSD_CSHL.c **** *
 242:Generated_Source\PSoC5/CapSense_CSD_CSHL.c **** * Reentrant:
 243:Generated_Source\PSoC5/CapSense_CSD_CSHL.c **** *  No
 244:Generated_Source\PSoC5/CapSense_CSD_CSHL.c **** *
 245:Generated_Source\PSoC5/CapSense_CSD_CSHL.c **** *******************************************************************************/
 246:Generated_Source\PSoC5/CapSense_CSD_CSHL.c **** void CapSense_CSD_InitializeAllBaselines(void)
 247:Generated_Source\PSoC5/CapSense_CSD_CSHL.c ****                           
 248:Generated_Source\PSoC5/CapSense_CSD_CSHL.c **** {
 202              		.loc 1 248 0
 203              		.cfi_startproc
 204              		@ args = 0, pretend = 0, frame = 8
 205              		@ frame_needed = 1, uses_anonymous_args = 0
 206 0000 80B5     		push	{r7, lr}
 207              		.cfi_def_cfa_offset 8
 208              		.cfi_offset 7, -8
ARM GAS  C:\Users\ash750\AppData\Local\Temp\ccoL50IN.s 			page 9


 209              		.cfi_offset 14, -4
 210 0002 82B0     		sub	sp, sp, #8
 211              		.cfi_def_cfa_offset 16
 212 0004 00AF     		add	r7, sp, #0
 213              		.cfi_def_cfa_register 7
 249:Generated_Source\PSoC5/CapSense_CSD_CSHL.c ****     uint8 i;
 250:Generated_Source\PSoC5/CapSense_CSD_CSHL.c ****     
 251:Generated_Source\PSoC5/CapSense_CSD_CSHL.c ****     /* The baseline initialize by sensor of sensor pair */
 252:Generated_Source\PSoC5/CapSense_CSD_CSHL.c ****     for(i = 0u; i < CapSense_CSD_TOTAL_SCANSLOT_COUNT; i++)
 214              		.loc 1 252 0
 215 0006 0023     		movs	r3, #0
 216 0008 FB71     		strb	r3, [r7, #7]
 217 000a 06E0     		b	.L7
 218              	.L8:
 253:Generated_Source\PSoC5/CapSense_CSD_CSHL.c ****     {
 254:Generated_Source\PSoC5/CapSense_CSD_CSHL.c ****         CapSense_CSD_InitializeSensorBaseline(i);
 219              		.loc 1 254 0 discriminator 3
 220 000c FB79     		ldrb	r3, [r7, #7]	@ zero_extendqisi2
 221 000e 1846     		mov	r0, r3
 222 0010 FFF7FEFF 		bl	CapSense_CSD_InitializeSensorBaseline
 252:Generated_Source\PSoC5/CapSense_CSD_CSHL.c ****     {
 223              		.loc 1 252 0 discriminator 3
 224 0014 FB79     		ldrb	r3, [r7, #7]	@ zero_extendqisi2
 225 0016 0133     		adds	r3, r3, #1
 226 0018 FB71     		strb	r3, [r7, #7]
 227              	.L7:
 252:Generated_Source\PSoC5/CapSense_CSD_CSHL.c ****     {
 228              		.loc 1 252 0 is_stmt 0 discriminator 1
 229 001a FB79     		ldrb	r3, [r7, #7]	@ zero_extendqisi2
 230 001c 002B     		cmp	r3, #0
 231 001e F5D0     		beq	.L8
 255:Generated_Source\PSoC5/CapSense_CSD_CSHL.c ****     }
 256:Generated_Source\PSoC5/CapSense_CSD_CSHL.c **** }
 232              		.loc 1 256 0 is_stmt 1
 233 0020 00BF     		nop
 234 0022 0837     		adds	r7, r7, #8
 235              		.cfi_def_cfa_offset 8
 236 0024 BD46     		mov	sp, r7
 237              		.cfi_def_cfa_register 13
 238              		@ sp needed
 239 0026 80BD     		pop	{r7, pc}
 240              		.cfi_endproc
 241              	.LFE2:
 242              		.size	CapSense_CSD_InitializeAllBaselines, .-CapSense_CSD_InitializeAllBaselines
 243              		.section	.text.CapSense_CSD_InitializeEnabledBaselines,"ax",%progbits
 244              		.align	2
 245              		.global	CapSense_CSD_InitializeEnabledBaselines
 246              		.thumb
 247              		.thumb_func
 248              		.type	CapSense_CSD_InitializeEnabledBaselines, %function
 249              	CapSense_CSD_InitializeEnabledBaselines:
 250              	.LFB3:
 257:Generated_Source\PSoC5/CapSense_CSD_CSHL.c **** 
 258:Generated_Source\PSoC5/CapSense_CSD_CSHL.c **** 
 259:Generated_Source\PSoC5/CapSense_CSD_CSHL.c **** /*******************************************************************************
 260:Generated_Source\PSoC5/CapSense_CSD_CSHL.c **** * Function Name: CapSense_CSD_InitializeEnabledBaselines
 261:Generated_Source\PSoC5/CapSense_CSD_CSHL.c **** ********************************************************************************
ARM GAS  C:\Users\ash750\AppData\Local\Temp\ccoL50IN.s 			page 10


 262:Generated_Source\PSoC5/CapSense_CSD_CSHL.c **** *
 263:Generated_Source\PSoC5/CapSense_CSD_CSHL.c **** * Summary:
 264:Generated_Source\PSoC5/CapSense_CSD_CSHL.c **** *  Scans all enabled widgets and the raw count values are copied into the 
 265:Generated_Source\PSoC5/CapSense_CSD_CSHL.c **** *  baseline array for all sensors enabled in scanning process. Baselines 
 266:Generated_Source\PSoC5/CapSense_CSD_CSHL.c **** *  initialize with zero values for sensors disabled from scanning process. 
 267:Generated_Source\PSoC5/CapSense_CSD_CSHL.c **** *  The raw data filters are initialized if enabled.
 268:Generated_Source\PSoC5/CapSense_CSD_CSHL.c **** *
 269:Generated_Source\PSoC5/CapSense_CSD_CSHL.c **** * Parameters:
 270:Generated_Source\PSoC5/CapSense_CSD_CSHL.c **** *  None
 271:Generated_Source\PSoC5/CapSense_CSD_CSHL.c **** *
 272:Generated_Source\PSoC5/CapSense_CSD_CSHL.c **** * Return:
 273:Generated_Source\PSoC5/CapSense_CSD_CSHL.c **** *  None
 274:Generated_Source\PSoC5/CapSense_CSD_CSHL.c **** *
 275:Generated_Source\PSoC5/CapSense_CSD_CSHL.c **** * Reentrant:
 276:Generated_Source\PSoC5/CapSense_CSD_CSHL.c **** *  No
 277:Generated_Source\PSoC5/CapSense_CSD_CSHL.c **** *
 278:Generated_Source\PSoC5/CapSense_CSD_CSHL.c **** *******************************************************************************/
 279:Generated_Source\PSoC5/CapSense_CSD_CSHL.c **** void CapSense_CSD_InitializeEnabledBaselines(void)
 280:Generated_Source\PSoC5/CapSense_CSD_CSHL.c ****                              
 281:Generated_Source\PSoC5/CapSense_CSD_CSHL.c **** {
 251              		.loc 1 281 0
 252              		.cfi_startproc
 253              		@ args = 0, pretend = 0, frame = 8
 254              		@ frame_needed = 1, uses_anonymous_args = 0
 255 0000 80B5     		push	{r7, lr}
 256              		.cfi_def_cfa_offset 8
 257              		.cfi_offset 7, -8
 258              		.cfi_offset 14, -4
 259 0002 82B0     		sub	sp, sp, #8
 260              		.cfi_def_cfa_offset 16
 261 0004 00AF     		add	r7, sp, #0
 262              		.cfi_def_cfa_register 7
 282:Generated_Source\PSoC5/CapSense_CSD_CSHL.c ****     uint8 i;
 283:Generated_Source\PSoC5/CapSense_CSD_CSHL.c ****     uint8 pos;
 284:Generated_Source\PSoC5/CapSense_CSD_CSHL.c ****     uint8 enMask;
 285:Generated_Source\PSoC5/CapSense_CSD_CSHL.c ****     
 286:Generated_Source\PSoC5/CapSense_CSD_CSHL.c ****     CapSense_CSD_ScanEnabledWidgets();
 263              		.loc 1 286 0
 264 0006 FFF7FEFF 		bl	CapSense_CSD_ScanEnabledWidgets
 287:Generated_Source\PSoC5/CapSense_CSD_CSHL.c ****     while(CapSense_CSD_IsBusy() != 0u)
 265              		.loc 1 287 0
 266 000a 00BF     		nop
 267              	.L10:
 268              		.loc 1 287 0 is_stmt 0 discriminator 1
 269 000c FFF7FEFF 		bl	CapSense_CSD_IsBusy
 270 0010 0346     		mov	r3, r0
 271 0012 002B     		cmp	r3, #0
 272 0014 FAD1     		bne	.L10
 288:Generated_Source\PSoC5/CapSense_CSD_CSHL.c ****     {
 289:Generated_Source\PSoC5/CapSense_CSD_CSHL.c ****         /* Wait while busy */
 290:Generated_Source\PSoC5/CapSense_CSD_CSHL.c ****     }
 291:Generated_Source\PSoC5/CapSense_CSD_CSHL.c ****     
 292:Generated_Source\PSoC5/CapSense_CSD_CSHL.c ****     for(i = 0u; i < CapSense_CSD_TOTAL_SENSOR_COUNT; i++)
 273              		.loc 1 292 0 is_stmt 1
 274 0016 0023     		movs	r3, #0
 275 0018 FB71     		strb	r3, [r7, #7]
 276 001a 1DE0     		b	.L11
ARM GAS  C:\Users\ash750\AppData\Local\Temp\ccoL50IN.s 			page 11


 277              	.L13:
 293:Generated_Source\PSoC5/CapSense_CSD_CSHL.c ****     {
 294:Generated_Source\PSoC5/CapSense_CSD_CSHL.c ****         pos = (i >> 3u);
 278              		.loc 1 294 0
 279 001c FB79     		ldrb	r3, [r7, #7]	@ zero_extendqisi2
 280 001e DB08     		lsrs	r3, r3, #3
 281 0020 BB71     		strb	r3, [r7, #6]
 295:Generated_Source\PSoC5/CapSense_CSD_CSHL.c ****         enMask = 0x01u << (i & 0x07u);
 282              		.loc 1 295 0
 283 0022 FB79     		ldrb	r3, [r7, #7]	@ zero_extendqisi2
 284 0024 03F00703 		and	r3, r3, #7
 285 0028 0122     		movs	r2, #1
 286 002a 02FA03F3 		lsl	r3, r2, r3
 287 002e 7B71     		strb	r3, [r7, #5]
 296:Generated_Source\PSoC5/CapSense_CSD_CSHL.c ****         
 297:Generated_Source\PSoC5/CapSense_CSD_CSHL.c ****         /* Clear raw data if sensor is disabled from scanning process */
 298:Generated_Source\PSoC5/CapSense_CSD_CSHL.c ****         if((CapSense_CSD_sensorEnableMask[pos] & enMask) == 0u)
 288              		.loc 1 298 0
 289 0030 BB79     		ldrb	r3, [r7, #6]	@ zero_extendqisi2
 290 0032 0D4A     		ldr	r2, .L14
 291 0034 D25C     		ldrb	r2, [r2, r3]	@ zero_extendqisi2
 292 0036 7B79     		ldrb	r3, [r7, #5]
 293 0038 1340     		ands	r3, r3, r2
 294 003a DBB2     		uxtb	r3, r3
 295 003c 002B     		cmp	r3, #0
 296 003e 04D1     		bne	.L12
 299:Generated_Source\PSoC5/CapSense_CSD_CSHL.c ****         {
 300:Generated_Source\PSoC5/CapSense_CSD_CSHL.c ****             CapSense_CSD_sensorRaw[i] = 0u;
 297              		.loc 1 300 0
 298 0040 FB79     		ldrb	r3, [r7, #7]	@ zero_extendqisi2
 299 0042 0A4A     		ldr	r2, .L14+4
 300 0044 0021     		movs	r1, #0
 301 0046 22F81310 		strh	r1, [r2, r3, lsl #1]	@ movhi
 302              	.L12:
 301:Generated_Source\PSoC5/CapSense_CSD_CSHL.c ****         }
 302:Generated_Source\PSoC5/CapSense_CSD_CSHL.c ****         
 303:Generated_Source\PSoC5/CapSense_CSD_CSHL.c ****         /* Initialize baselines */
 304:Generated_Source\PSoC5/CapSense_CSD_CSHL.c ****         CapSense_CSD_BaseInit(i);
 303              		.loc 1 304 0 discriminator 2
 304 004a FB79     		ldrb	r3, [r7, #7]	@ zero_extendqisi2
 305 004c 1846     		mov	r0, r3
 306 004e FFF7FEFF 		bl	CapSense_CSD_BaseInit
 292:Generated_Source\PSoC5/CapSense_CSD_CSHL.c ****     {
 307              		.loc 1 292 0 discriminator 2
 308 0052 FB79     		ldrb	r3, [r7, #7]	@ zero_extendqisi2
 309 0054 0133     		adds	r3, r3, #1
 310 0056 FB71     		strb	r3, [r7, #7]
 311              	.L11:
 292:Generated_Source\PSoC5/CapSense_CSD_CSHL.c ****     {
 312              		.loc 1 292 0 is_stmt 0 discriminator 1
 313 0058 FB79     		ldrb	r3, [r7, #7]	@ zero_extendqisi2
 314 005a 002B     		cmp	r3, #0
 315 005c DED0     		beq	.L13
 305:Generated_Source\PSoC5/CapSense_CSD_CSHL.c ****     }
 306:Generated_Source\PSoC5/CapSense_CSD_CSHL.c **** }  
 316              		.loc 1 306 0 is_stmt 1
 317 005e 00BF     		nop
ARM GAS  C:\Users\ash750\AppData\Local\Temp\ccoL50IN.s 			page 12


 318 0060 0837     		adds	r7, r7, #8
 319              		.cfi_def_cfa_offset 8
 320 0062 BD46     		mov	sp, r7
 321              		.cfi_def_cfa_register 13
 322              		@ sp needed
 323 0064 80BD     		pop	{r7, pc}
 324              	.L15:
 325 0066 00BF     		.align	2
 326              	.L14:
 327 0068 00000000 		.word	CapSense_CSD_sensorEnableMask
 328 006c 00000000 		.word	CapSense_CSD_sensorRaw
 329              		.cfi_endproc
 330              	.LFE3:
 331              		.size	CapSense_CSD_InitializeEnabledBaselines, .-CapSense_CSD_InitializeEnabledBaselines
 332              		.section	.text.CapSense_CSD_UpdateSensorBaseline,"ax",%progbits
 333              		.align	2
 334              		.global	CapSense_CSD_UpdateSensorBaseline
 335              		.thumb
 336              		.thumb_func
 337              		.type	CapSense_CSD_UpdateSensorBaseline, %function
 338              	CapSense_CSD_UpdateSensorBaseline:
 339              	.LFB4:
 307:Generated_Source\PSoC5/CapSense_CSD_CSHL.c **** 
 308:Generated_Source\PSoC5/CapSense_CSD_CSHL.c **** 
 309:Generated_Source\PSoC5/CapSense_CSD_CSHL.c **** /*******************************************************************************
 310:Generated_Source\PSoC5/CapSense_CSD_CSHL.c **** * Function Name: CapSense_CSD_UpdateSensorBaseline
 311:Generated_Source\PSoC5/CapSense_CSD_CSHL.c **** ********************************************************************************
 312:Generated_Source\PSoC5/CapSense_CSD_CSHL.c **** *
 313:Generated_Source\PSoC5/CapSense_CSD_CSHL.c **** * Summary:
 314:Generated_Source\PSoC5/CapSense_CSD_CSHL.c **** *  Updates the CapSense_CSD_sensorBaseline[sensor] array element using the 
 315:Generated_Source\PSoC5/CapSense_CSD_CSHL.c **** *  LP filter with k = 256. The signal calculates the difference of count by 
 316:Generated_Source\PSoC5/CapSense_CSD_CSHL.c **** *  subtracting the previous baseline from the current raw count value and stores
 317:Generated_Source\PSoC5/CapSense_CSD_CSHL.c **** *  it in CapSense_CSD_SensorSignal[sensor]. 
 318:Generated_Source\PSoC5/CapSense_CSD_CSHL.c **** *  If auto reset option is enabled the baseline updated regards noise threshold. 
 319:Generated_Source\PSoC5/CapSense_CSD_CSHL.c **** *  If auto reset option is disabled the baseline stops updating if signal is 
 320:Generated_Source\PSoC5/CapSense_CSD_CSHL.c **** *  greater that zero and baseline loads with raw count value if signal is less 
 321:Generated_Source\PSoC5/CapSense_CSD_CSHL.c **** *  that noise threshold.
 322:Generated_Source\PSoC5/CapSense_CSD_CSHL.c **** *  Raw data filters are applied to the values if enabled before baseline 
 323:Generated_Source\PSoC5/CapSense_CSD_CSHL.c **** *  calculation.
 324:Generated_Source\PSoC5/CapSense_CSD_CSHL.c **** *
 325:Generated_Source\PSoC5/CapSense_CSD_CSHL.c **** * Parameters:
 326:Generated_Source\PSoC5/CapSense_CSD_CSHL.c **** *  sensor:  Sensor number.
 327:Generated_Source\PSoC5/CapSense_CSD_CSHL.c **** *
 328:Generated_Source\PSoC5/CapSense_CSD_CSHL.c **** * Return:
 329:Generated_Source\PSoC5/CapSense_CSD_CSHL.c **** *  None
 330:Generated_Source\PSoC5/CapSense_CSD_CSHL.c **** *
 331:Generated_Source\PSoC5/CapSense_CSD_CSHL.c **** * Global Variables:
 332:Generated_Source\PSoC5/CapSense_CSD_CSHL.c **** *  CapSense_CSD_sensorBaseline[]    - used to store baseline value.
 333:Generated_Source\PSoC5/CapSense_CSD_CSHL.c **** *  CapSense_CSD_sensorBaselineLow[] - used to store fraction byte of 
 334:Generated_Source\PSoC5/CapSense_CSD_CSHL.c **** *  baseline value.
 335:Generated_Source\PSoC5/CapSense_CSD_CSHL.c **** *  CapSense_CSD_sensorSignal[]      - used to store diffence between 
 336:Generated_Source\PSoC5/CapSense_CSD_CSHL.c **** *  current value of raw data and previous value of baseline.
 337:Generated_Source\PSoC5/CapSense_CSD_CSHL.c **** *  CapSense_CSD_rawFilterData1[]    - used to store previous sample of 
 338:Generated_Source\PSoC5/CapSense_CSD_CSHL.c **** *  any enabled raw data filter.
 339:Generated_Source\PSoC5/CapSense_CSD_CSHL.c **** *  CapSense_CSD_rawFilterData2[]    - used to store before previous sample
 340:Generated_Source\PSoC5/CapSense_CSD_CSHL.c **** *  of enabled raw data filter. Only required for median or average filters.
 341:Generated_Source\PSoC5/CapSense_CSD_CSHL.c **** *
ARM GAS  C:\Users\ash750\AppData\Local\Temp\ccoL50IN.s 			page 13


 342:Generated_Source\PSoC5/CapSense_CSD_CSHL.c **** * Reentrant:
 343:Generated_Source\PSoC5/CapSense_CSD_CSHL.c **** *  No
 344:Generated_Source\PSoC5/CapSense_CSD_CSHL.c **** *
 345:Generated_Source\PSoC5/CapSense_CSD_CSHL.c **** *******************************************************************************/
 346:Generated_Source\PSoC5/CapSense_CSD_CSHL.c ****  void CapSense_CSD_UpdateSensorBaseline(uint8 sensor)
 347:Generated_Source\PSoC5/CapSense_CSD_CSHL.c ****                                  
 348:Generated_Source\PSoC5/CapSense_CSD_CSHL.c **** {
 340              		.loc 1 348 0
 341              		.cfi_startproc
 342              		@ args = 0, pretend = 0, frame = 24
 343              		@ frame_needed = 1, uses_anonymous_args = 0
 344 0000 80B5     		push	{r7, lr}
 345              		.cfi_def_cfa_offset 8
 346              		.cfi_offset 7, -8
 347              		.cfi_offset 14, -4
 348 0002 86B0     		sub	sp, sp, #24
 349              		.cfi_def_cfa_offset 32
 350 0004 00AF     		add	r7, sp, #0
 351              		.cfi_def_cfa_register 7
 352 0006 0346     		mov	r3, r0
 353 0008 FB71     		strb	r3, [r7, #7]
 349:Generated_Source\PSoC5/CapSense_CSD_CSHL.c ****     uint32 calc;
 350:Generated_Source\PSoC5/CapSense_CSD_CSHL.c ****     uint16 tempRaw;
 351:Generated_Source\PSoC5/CapSense_CSD_CSHL.c ****     uint16 filteredRawData;
 352:Generated_Source\PSoC5/CapSense_CSD_CSHL.c ****     uint8 widget = CapSense_CSD_widgetNumber[sensor];
 354              		.loc 1 352 0
 355 000a FB79     		ldrb	r3, [r7, #7]	@ zero_extendqisi2
 356 000c 454A     		ldr	r2, .L26
 357 000e D35C     		ldrb	r3, [r2, r3]
 358 0010 7B75     		strb	r3, [r7, #21]
 353:Generated_Source\PSoC5/CapSense_CSD_CSHL.c ****     uint16 noiseThreshold = CapSense_CSD_noiseThreshold[widget];
 359              		.loc 1 353 0
 360 0012 7B7D     		ldrb	r3, [r7, #21]	@ zero_extendqisi2
 361 0014 444A     		ldr	r2, .L26+4
 362 0016 32F81330 		ldrh	r3, [r2, r3, lsl #1]	@ movhi
 363 001a 7B82     		strh	r3, [r7, #18]	@ movhi
 354:Generated_Source\PSoC5/CapSense_CSD_CSHL.c ****     
 355:Generated_Source\PSoC5/CapSense_CSD_CSHL.c ****     #if (CapSense_CSD_TOTAL_GENERICS_COUNT)
 356:Generated_Source\PSoC5/CapSense_CSD_CSHL.c ****         /* Exclude generic widget */
 357:Generated_Source\PSoC5/CapSense_CSD_CSHL.c ****         if(widget < CapSense_CSD_END_OF_WIDGETS_INDEX)
 358:Generated_Source\PSoC5/CapSense_CSD_CSHL.c ****         {
 359:Generated_Source\PSoC5/CapSense_CSD_CSHL.c ****     #endif  /* CapSense_CSD_TOTAL_GENERICS_COUNT */
 360:Generated_Source\PSoC5/CapSense_CSD_CSHL.c ****     
 361:Generated_Source\PSoC5/CapSense_CSD_CSHL.c ****     filteredRawData = CapSense_CSD_sensorRaw[sensor];
 364              		.loc 1 361 0
 365 001c FB79     		ldrb	r3, [r7, #7]	@ zero_extendqisi2
 366 001e 434A     		ldr	r2, .L26+8
 367 0020 32F81330 		ldrh	r3, [r2, r3, lsl #1]	@ movhi
 368 0024 3B82     		strh	r3, [r7, #16]	@ movhi
 362:Generated_Source\PSoC5/CapSense_CSD_CSHL.c ****     
 363:Generated_Source\PSoC5/CapSense_CSD_CSHL.c ****     #if (CapSense_CSD_RAW_FILTER_MASK & CapSense_CSD_MEDIAN_FILTER)
 364:Generated_Source\PSoC5/CapSense_CSD_CSHL.c ****         tempRaw = filteredRawData;
 365:Generated_Source\PSoC5/CapSense_CSD_CSHL.c ****         filteredRawData = CapSense_CSD_MedianFilter(filteredRawData, CapSense_CSD_rawFilterData1[se
 366:Generated_Source\PSoC5/CapSense_CSD_CSHL.c ****                                                         CapSense_CSD_rawFilterData2[sensor]);
 367:Generated_Source\PSoC5/CapSense_CSD_CSHL.c ****         CapSense_CSD_rawFilterData2[sensor] = CapSense_CSD_rawFilterData1[sensor];
 368:Generated_Source\PSoC5/CapSense_CSD_CSHL.c ****         CapSense_CSD_rawFilterData1[sensor] = tempRaw;
 369:Generated_Source\PSoC5/CapSense_CSD_CSHL.c ****         
ARM GAS  C:\Users\ash750\AppData\Local\Temp\ccoL50IN.s 			page 14


 370:Generated_Source\PSoC5/CapSense_CSD_CSHL.c ****     #elif (CapSense_CSD_RAW_FILTER_MASK & CapSense_CSD_AVERAGING_FILTER)
 371:Generated_Source\PSoC5/CapSense_CSD_CSHL.c ****         tempRaw = filteredRawData;
 372:Generated_Source\PSoC5/CapSense_CSD_CSHL.c ****         filteredRawData = CapSense_CSD_AveragingFilter(filteredRawData, CapSense_CSD_rawFilterData1
 373:Generated_Source\PSoC5/CapSense_CSD_CSHL.c ****                                                            CapSense_CSD_rawFilterData2[sensor]);
 374:Generated_Source\PSoC5/CapSense_CSD_CSHL.c ****         CapSense_CSD_rawFilterData2[sensor] = CapSense_CSD_rawFilterData1[sensor];
 375:Generated_Source\PSoC5/CapSense_CSD_CSHL.c ****         CapSense_CSD_rawFilterData1[sensor] = tempRaw;
 376:Generated_Source\PSoC5/CapSense_CSD_CSHL.c ****         
 377:Generated_Source\PSoC5/CapSense_CSD_CSHL.c ****     #elif (CapSense_CSD_RAW_FILTER_MASK & CapSense_CSD_IIR2_FILTER)
 378:Generated_Source\PSoC5/CapSense_CSD_CSHL.c ****         filteredRawData = CapSense_CSD_IIR2Filter(filteredRawData, CapSense_CSD_rawFilterData1[sens
 379:Generated_Source\PSoC5/CapSense_CSD_CSHL.c ****         CapSense_CSD_rawFilterData1[sensor] = filteredRawData;
 380:Generated_Source\PSoC5/CapSense_CSD_CSHL.c ****         
 381:Generated_Source\PSoC5/CapSense_CSD_CSHL.c ****     #elif (CapSense_CSD_RAW_FILTER_MASK & CapSense_CSD_IIR4_FILTER)
 382:Generated_Source\PSoC5/CapSense_CSD_CSHL.c ****         filteredRawData = CapSense_CSD_IIR4Filter(filteredRawData, CapSense_CSD_rawFilterData1[sens
 383:Generated_Source\PSoC5/CapSense_CSD_CSHL.c ****         CapSense_CSD_rawFilterData1[sensor] = filteredRawData;
 384:Generated_Source\PSoC5/CapSense_CSD_CSHL.c ****             
 385:Generated_Source\PSoC5/CapSense_CSD_CSHL.c ****     #elif (CapSense_CSD_RAW_FILTER_MASK & CapSense_CSD_JITTER_FILTER)
 386:Generated_Source\PSoC5/CapSense_CSD_CSHL.c ****         filteredRawData = CapSense_CSD_JitterFilter(filteredRawData, CapSense_CSD_rawFilterData1[se
 387:Generated_Source\PSoC5/CapSense_CSD_CSHL.c ****         CapSense_CSD_rawFilterData1[sensor] = filteredRawData;
 388:Generated_Source\PSoC5/CapSense_CSD_CSHL.c ****         
 389:Generated_Source\PSoC5/CapSense_CSD_CSHL.c ****     #elif (CapSense_CSD_RAW_FILTER_MASK & CapSense_CSD_IIR8_FILTER)
 390:Generated_Source\PSoC5/CapSense_CSD_CSHL.c ****         filteredRawData = CapSense_CSD_IIR8Filter(filteredRawData, CapSense_CSD_rawFilterData1[sens
 391:Generated_Source\PSoC5/CapSense_CSD_CSHL.c ****         CapSense_CSD_rawFilterData1[sensor] = filteredRawData;
 392:Generated_Source\PSoC5/CapSense_CSD_CSHL.c ****         
 393:Generated_Source\PSoC5/CapSense_CSD_CSHL.c ****     #elif (CapSense_CSD_RAW_FILTER_MASK & CapSense_CSD_IIR16_FILTER)
 394:Generated_Source\PSoC5/CapSense_CSD_CSHL.c ****         filteredRawData = CapSense_CSD_IIR16Filter(filteredRawData, CapSense_CSD_rawFilterData1[sen
 395:Generated_Source\PSoC5/CapSense_CSD_CSHL.c ****         CapSense_CSD_rawFilterData1[sensor] = filteredRawData;
 396:Generated_Source\PSoC5/CapSense_CSD_CSHL.c ****         
 397:Generated_Source\PSoC5/CapSense_CSD_CSHL.c ****     #else
 398:Generated_Source\PSoC5/CapSense_CSD_CSHL.c ****         /* No Raw filters */
 399:Generated_Source\PSoC5/CapSense_CSD_CSHL.c ****     #endif  /* (CapSense_CSD_RAW_FILTER_MASK & CapSense_CSD_MEDIAN_FILTER) */
 400:Generated_Source\PSoC5/CapSense_CSD_CSHL.c ****     
 401:Generated_Source\PSoC5/CapSense_CSD_CSHL.c ****     #if (CapSense_CSD_TUNING_METHOD == CapSense_CSD_AUTO_TUNING)
 402:Generated_Source\PSoC5/CapSense_CSD_CSHL.c ****         CapSense_CSD_CalculateThresholds(sensor);
 403:Generated_Source\PSoC5/CapSense_CSD_CSHL.c ****     #endif /* (CapSense_CSD_TUNING_METHOD == CapSense_CSD_AUTO_TUNING) */
 404:Generated_Source\PSoC5/CapSense_CSD_CSHL.c **** 
 405:Generated_Source\PSoC5/CapSense_CSD_CSHL.c **** 
 406:Generated_Source\PSoC5/CapSense_CSD_CSHL.c ****     /* Baseline calculation */
 407:Generated_Source\PSoC5/CapSense_CSD_CSHL.c ****     /* Calculate difference RawData[cur] - Baseline[prev] */
 408:Generated_Source\PSoC5/CapSense_CSD_CSHL.c ****     if(filteredRawData >= CapSense_CSD_sensorBaseline[sensor])
 369              		.loc 1 408 0
 370 0026 FB79     		ldrb	r3, [r7, #7]	@ zero_extendqisi2
 371 0028 414A     		ldr	r2, .L26+12
 372 002a 32F81330 		ldrh	r3, [r2, r3, lsl #1]
 373 002e 3A8A     		ldrh	r2, [r7, #16]
 374 0030 9A42     		cmp	r2, r3
 375 0032 09D3     		bcc	.L17
 409:Generated_Source\PSoC5/CapSense_CSD_CSHL.c ****     {
 410:Generated_Source\PSoC5/CapSense_CSD_CSHL.c ****         tempRaw = filteredRawData - CapSense_CSD_sensorBaseline[sensor];
 376              		.loc 1 410 0
 377 0034 FB79     		ldrb	r3, [r7, #7]	@ zero_extendqisi2
 378 0036 3E4A     		ldr	r2, .L26+12
 379 0038 32F81330 		ldrh	r3, [r2, r3, lsl #1]
 380 003c 3A8A     		ldrh	r2, [r7, #16]	@ movhi
 381 003e D31A     		subs	r3, r2, r3
 382 0040 FB82     		strh	r3, [r7, #22]	@ movhi
 411:Generated_Source\PSoC5/CapSense_CSD_CSHL.c ****         widget = 1u;    /* Positive difference - Calculate the Signal */
 383              		.loc 1 411 0
ARM GAS  C:\Users\ash750\AppData\Local\Temp\ccoL50IN.s 			page 15


 384 0042 0123     		movs	r3, #1
 385 0044 7B75     		strb	r3, [r7, #21]
 386 0046 08E0     		b	.L18
 387              	.L17:
 412:Generated_Source\PSoC5/CapSense_CSD_CSHL.c ****     }
 413:Generated_Source\PSoC5/CapSense_CSD_CSHL.c ****     else
 414:Generated_Source\PSoC5/CapSense_CSD_CSHL.c ****     {
 415:Generated_Source\PSoC5/CapSense_CSD_CSHL.c ****         tempRaw = CapSense_CSD_sensorBaseline[sensor] - filteredRawData;
 388              		.loc 1 415 0
 389 0048 FB79     		ldrb	r3, [r7, #7]	@ zero_extendqisi2
 390 004a 394A     		ldr	r2, .L26+12
 391 004c 32F81320 		ldrh	r2, [r2, r3, lsl #1]
 392 0050 3B8A     		ldrh	r3, [r7, #16]	@ movhi
 393 0052 D31A     		subs	r3, r2, r3
 394 0054 FB82     		strh	r3, [r7, #22]	@ movhi
 416:Generated_Source\PSoC5/CapSense_CSD_CSHL.c ****         widget = 0u;    /* Negative difference - Do NOT calculate the Signal */
 395              		.loc 1 416 0
 396 0056 0023     		movs	r3, #0
 397 0058 7B75     		strb	r3, [r7, #21]
 398              	.L18:
 417:Generated_Source\PSoC5/CapSense_CSD_CSHL.c ****     }
 418:Generated_Source\PSoC5/CapSense_CSD_CSHL.c **** 
 419:Generated_Source\PSoC5/CapSense_CSD_CSHL.c ****     if((widget == 0u) && (tempRaw > (uint16) CapSense_CSD_NEGATIVE_NOISE_THRESHOLD))
 399              		.loc 1 419 0
 400 005a 7B7D     		ldrb	r3, [r7, #21]	@ zero_extendqisi2
 401 005c 002B     		cmp	r3, #0
 402 005e 18D1     		bne	.L19
 403              		.loc 1 419 0 is_stmt 0 discriminator 1
 404 0060 FB8A     		ldrh	r3, [r7, #22]
 405 0062 142B     		cmp	r3, #20
 406 0064 15D9     		bls	.L19
 420:Generated_Source\PSoC5/CapSense_CSD_CSHL.c ****     {
 421:Generated_Source\PSoC5/CapSense_CSD_CSHL.c ****         if(CapSense_CSD_lowBaselineResetCnt[sensor] >= CapSense_CSD_LOW_BASELINE_RESET)
 407              		.loc 1 421 0 is_stmt 1
 408 0066 FB79     		ldrb	r3, [r7, #7]	@ zero_extendqisi2
 409 0068 324A     		ldr	r2, .L26+16
 410 006a D35C     		ldrb	r3, [r2, r3]	@ zero_extendqisi2
 411 006c 042B     		cmp	r3, #4
 412 006e 08D9     		bls	.L20
 422:Generated_Source\PSoC5/CapSense_CSD_CSHL.c ****         {
 423:Generated_Source\PSoC5/CapSense_CSD_CSHL.c ****             CapSense_CSD_BaseInit(sensor);
 413              		.loc 1 423 0
 414 0070 FB79     		ldrb	r3, [r7, #7]	@ zero_extendqisi2
 415 0072 1846     		mov	r0, r3
 416 0074 FFF7FEFF 		bl	CapSense_CSD_BaseInit
 424:Generated_Source\PSoC5/CapSense_CSD_CSHL.c ****             CapSense_CSD_lowBaselineResetCnt[sensor] = 0u;
 417              		.loc 1 424 0
 418 0078 FB79     		ldrb	r3, [r7, #7]	@ zero_extendqisi2
 419 007a 2E4A     		ldr	r2, .L26+16
 420 007c 0021     		movs	r1, #0
 421 007e D154     		strb	r1, [r2, r3]
 421:Generated_Source\PSoC5/CapSense_CSD_CSHL.c ****         {
 422              		.loc 1 421 0
 423 0080 3AE0     		b	.L22
 424              	.L20:
 425:Generated_Source\PSoC5/CapSense_CSD_CSHL.c ****         }
 426:Generated_Source\PSoC5/CapSense_CSD_CSHL.c ****         else
ARM GAS  C:\Users\ash750\AppData\Local\Temp\ccoL50IN.s 			page 16


 427:Generated_Source\PSoC5/CapSense_CSD_CSHL.c ****         {
 428:Generated_Source\PSoC5/CapSense_CSD_CSHL.c ****             CapSense_CSD_lowBaselineResetCnt[sensor]++;
 425              		.loc 1 428 0
 426 0082 FB79     		ldrb	r3, [r7, #7]	@ zero_extendqisi2
 427 0084 2B4A     		ldr	r2, .L26+16
 428 0086 D25C     		ldrb	r2, [r2, r3]	@ zero_extendqisi2
 429 0088 0132     		adds	r2, r2, #1
 430 008a D1B2     		uxtb	r1, r2
 431 008c 294A     		ldr	r2, .L26+16
 432 008e D154     		strb	r1, [r2, r3]
 421:Generated_Source\PSoC5/CapSense_CSD_CSHL.c ****         {
 433              		.loc 1 421 0
 434 0090 32E0     		b	.L22
 435              	.L19:
 429:Generated_Source\PSoC5/CapSense_CSD_CSHL.c ****         }
 430:Generated_Source\PSoC5/CapSense_CSD_CSHL.c ****     }
 431:Generated_Source\PSoC5/CapSense_CSD_CSHL.c ****     else
 432:Generated_Source\PSoC5/CapSense_CSD_CSHL.c ****     {
 433:Generated_Source\PSoC5/CapSense_CSD_CSHL.c ****         #if (CapSense_CSD_AUTO_RESET == CapSense_CSD_AUTO_RESET_DISABLE)
 434:Generated_Source\PSoC5/CapSense_CSD_CSHL.c ****             /* Update Baseline if lower that noiseThreshold */
 435:Generated_Source\PSoC5/CapSense_CSD_CSHL.c ****             if ( (tempRaw <= (uint16) noiseThreshold) || 
 436              		.loc 1 435 0
 437 0092 FA8A     		ldrh	r2, [r7, #22]
 438 0094 7B8A     		ldrh	r3, [r7, #18]
 439 0096 9A42     		cmp	r2, r3
 440 0098 05D9     		bls	.L23
 441              		.loc 1 435 0 is_stmt 0 discriminator 1
 442 009a FB8A     		ldrh	r3, [r7, #22]
 443 009c 132B     		cmp	r3, #19
 444 009e 2BD8     		bhi	.L22
 436:Generated_Source\PSoC5/CapSense_CSD_CSHL.c ****                  ((tempRaw < (uint16) CapSense_CSD_NEGATIVE_NOISE_THRESHOLD)
 437:Generated_Source\PSoC5/CapSense_CSD_CSHL.c ****                    && (widget == 0u)))
 445              		.loc 1 437 0 is_stmt 1
 446 00a0 7B7D     		ldrb	r3, [r7, #21]	@ zero_extendqisi2
 447 00a2 002B     		cmp	r3, #0
 448 00a4 28D1     		bne	.L22
 449              	.L23:
 438:Generated_Source\PSoC5/CapSense_CSD_CSHL.c ****             {
 439:Generated_Source\PSoC5/CapSense_CSD_CSHL.c ****         #endif /* (CapSense_CSD_AUTO_RESET == CapSense_CSD_AUTO_RESET_DISABLE) */
 440:Generated_Source\PSoC5/CapSense_CSD_CSHL.c ****                 /* Make full Baseline 23 bits */
 441:Generated_Source\PSoC5/CapSense_CSD_CSHL.c ****                 calc = (uint32) CapSense_CSD_sensorBaseline[sensor] << 8u;
 450              		.loc 1 441 0
 451 00a6 FB79     		ldrb	r3, [r7, #7]	@ zero_extendqisi2
 452 00a8 214A     		ldr	r2, .L26+12
 453 00aa 32F81330 		ldrh	r3, [r2, r3, lsl #1]
 454 00ae 1B02     		lsls	r3, r3, #8
 455 00b0 FB60     		str	r3, [r7, #12]
 442:Generated_Source\PSoC5/CapSense_CSD_CSHL.c ****                 calc |= (uint32) CapSense_CSD_sensorBaselineLow[sensor];
 456              		.loc 1 442 0
 457 00b2 FB79     		ldrb	r3, [r7, #7]	@ zero_extendqisi2
 458 00b4 204A     		ldr	r2, .L26+20
 459 00b6 D35C     		ldrb	r3, [r2, r3]	@ zero_extendqisi2
 460 00b8 1A46     		mov	r2, r3
 461 00ba FB68     		ldr	r3, [r7, #12]
 462 00bc 1343     		orrs	r3, r3, r2
 463 00be FB60     		str	r3, [r7, #12]
 443:Generated_Source\PSoC5/CapSense_CSD_CSHL.c **** 
ARM GAS  C:\Users\ash750\AppData\Local\Temp\ccoL50IN.s 			page 17


 444:Generated_Source\PSoC5/CapSense_CSD_CSHL.c ****                 /* Add Raw Data to Baseline */
 445:Generated_Source\PSoC5/CapSense_CSD_CSHL.c ****                 calc += filteredRawData;
 464              		.loc 1 445 0
 465 00c0 3B8A     		ldrh	r3, [r7, #16]
 466 00c2 FA68     		ldr	r2, [r7, #12]
 467 00c4 1344     		add	r3, r3, r2
 468 00c6 FB60     		str	r3, [r7, #12]
 446:Generated_Source\PSoC5/CapSense_CSD_CSHL.c **** 
 447:Generated_Source\PSoC5/CapSense_CSD_CSHL.c ****                 /* Sub the high Baseline */
 448:Generated_Source\PSoC5/CapSense_CSD_CSHL.c ****                 calc -= CapSense_CSD_sensorBaseline[sensor];
 469              		.loc 1 448 0
 470 00c8 FB79     		ldrb	r3, [r7, #7]	@ zero_extendqisi2
 471 00ca 194A     		ldr	r2, .L26+12
 472 00cc 32F81330 		ldrh	r3, [r2, r3, lsl #1]
 473 00d0 1A46     		mov	r2, r3
 474 00d2 FB68     		ldr	r3, [r7, #12]
 475 00d4 9B1A     		subs	r3, r3, r2
 476 00d6 FB60     		str	r3, [r7, #12]
 449:Generated_Source\PSoC5/CapSense_CSD_CSHL.c **** 
 450:Generated_Source\PSoC5/CapSense_CSD_CSHL.c ****                 /* Put Baseline and BaselineLow */
 451:Generated_Source\PSoC5/CapSense_CSD_CSHL.c ****                 CapSense_CSD_sensorBaseline[sensor] = ((uint16) (calc >> 8u));
 477              		.loc 1 451 0
 478 00d8 FB79     		ldrb	r3, [r7, #7]	@ zero_extendqisi2
 479 00da FA68     		ldr	r2, [r7, #12]
 480 00dc 120A     		lsrs	r2, r2, #8
 481 00de 91B2     		uxth	r1, r2
 482 00e0 134A     		ldr	r2, .L26+12
 483 00e2 22F81310 		strh	r1, [r2, r3, lsl #1]	@ movhi
 452:Generated_Source\PSoC5/CapSense_CSD_CSHL.c ****                 CapSense_CSD_sensorBaselineLow[sensor] = ((uint8) calc);
 484              		.loc 1 452 0
 485 00e6 FB79     		ldrb	r3, [r7, #7]	@ zero_extendqisi2
 486 00e8 FA68     		ldr	r2, [r7, #12]
 487 00ea D1B2     		uxtb	r1, r2
 488 00ec 124A     		ldr	r2, .L26+20
 489 00ee D154     		strb	r1, [r2, r3]
 453:Generated_Source\PSoC5/CapSense_CSD_CSHL.c **** 
 454:Generated_Source\PSoC5/CapSense_CSD_CSHL.c ****                 CapSense_CSD_lowBaselineResetCnt[sensor] = 0u;
 490              		.loc 1 454 0
 491 00f0 FB79     		ldrb	r3, [r7, #7]	@ zero_extendqisi2
 492 00f2 104A     		ldr	r2, .L26+16
 493 00f4 0021     		movs	r1, #0
 494 00f6 D154     		strb	r1, [r2, r3]
 495              	.L22:
 455:Generated_Source\PSoC5/CapSense_CSD_CSHL.c ****         #if (CapSense_CSD_AUTO_RESET == CapSense_CSD_AUTO_RESET_DISABLE)
 456:Generated_Source\PSoC5/CapSense_CSD_CSHL.c ****             }
 457:Generated_Source\PSoC5/CapSense_CSD_CSHL.c ****         #endif /* (CapSense_CSD_AUTO_RESET == CapSense_CSD_AUTO_RESET_DISABLE) */
 458:Generated_Source\PSoC5/CapSense_CSD_CSHL.c ****     }
 459:Generated_Source\PSoC5/CapSense_CSD_CSHL.c **** 
 460:Generated_Source\PSoC5/CapSense_CSD_CSHL.c ****     /* Calculate Signal if possitive difference > noiseThreshold */
 461:Generated_Source\PSoC5/CapSense_CSD_CSHL.c ****     if((tempRaw > (uint16) noiseThreshold) && (widget != 0u))
 496              		.loc 1 461 0
 497 00f8 FA8A     		ldrh	r2, [r7, #22]
 498 00fa 7B8A     		ldrh	r3, [r7, #18]
 499 00fc 9A42     		cmp	r2, r3
 500 00fe 08D9     		bls	.L24
 501              		.loc 1 461 0 is_stmt 0 discriminator 1
 502 0100 7B7D     		ldrb	r3, [r7, #21]	@ zero_extendqisi2
ARM GAS  C:\Users\ash750\AppData\Local\Temp\ccoL50IN.s 			page 18


 503 0102 002B     		cmp	r3, #0
 504 0104 05D0     		beq	.L24
 462:Generated_Source\PSoC5/CapSense_CSD_CSHL.c ****     {
 463:Generated_Source\PSoC5/CapSense_CSD_CSHL.c ****         #if (CapSense_CSD_SIGNAL_SIZE == CapSense_CSD_SIGNAL_SIZE_UINT8)
 464:Generated_Source\PSoC5/CapSense_CSD_CSHL.c ****             /* Over flow defence for uint8 */
 465:Generated_Source\PSoC5/CapSense_CSD_CSHL.c ****             if (tempRaw > 0xFFu)
 466:Generated_Source\PSoC5/CapSense_CSD_CSHL.c ****             {
 467:Generated_Source\PSoC5/CapSense_CSD_CSHL.c ****                 CapSense_CSD_sensorSignal[sensor] = 0xFFu;
 468:Generated_Source\PSoC5/CapSense_CSD_CSHL.c ****             }    
 469:Generated_Source\PSoC5/CapSense_CSD_CSHL.c ****             else 
 470:Generated_Source\PSoC5/CapSense_CSD_CSHL.c ****             {
 471:Generated_Source\PSoC5/CapSense_CSD_CSHL.c ****                 CapSense_CSD_sensorSignal[sensor] = ((uint8) tempRaw);
 472:Generated_Source\PSoC5/CapSense_CSD_CSHL.c ****             }
 473:Generated_Source\PSoC5/CapSense_CSD_CSHL.c ****         #else
 474:Generated_Source\PSoC5/CapSense_CSD_CSHL.c ****             CapSense_CSD_sensorSignal[sensor] = ((uint16) tempRaw);
 505              		.loc 1 474 0 is_stmt 1
 506 0106 FB79     		ldrb	r3, [r7, #7]	@ zero_extendqisi2
 507 0108 0C49     		ldr	r1, .L26+24
 508 010a FA8A     		ldrh	r2, [r7, #22]	@ movhi
 509 010c 21F81320 		strh	r2, [r1, r3, lsl #1]	@ movhi
 510 0110 04E0     		b	.L25
 511              	.L24:
 475:Generated_Source\PSoC5/CapSense_CSD_CSHL.c ****         #endif  /* (CapSense_CSD_SIGNAL_SIZE == CapSense_CSD_SIGNAL_SIZE_UINT8) */
 476:Generated_Source\PSoC5/CapSense_CSD_CSHL.c ****     }
 477:Generated_Source\PSoC5/CapSense_CSD_CSHL.c ****     else
 478:Generated_Source\PSoC5/CapSense_CSD_CSHL.c ****     {
 479:Generated_Source\PSoC5/CapSense_CSD_CSHL.c ****         /* Signal is zero */
 480:Generated_Source\PSoC5/CapSense_CSD_CSHL.c ****         CapSense_CSD_sensorSignal[sensor] = 0u;
 512              		.loc 1 480 0
 513 0112 FB79     		ldrb	r3, [r7, #7]	@ zero_extendqisi2
 514 0114 094A     		ldr	r2, .L26+24
 515 0116 0021     		movs	r1, #0
 516 0118 22F81310 		strh	r1, [r2, r3, lsl #1]	@ movhi
 517              	.L25:
 481:Generated_Source\PSoC5/CapSense_CSD_CSHL.c ****     }
 482:Generated_Source\PSoC5/CapSense_CSD_CSHL.c **** 
 483:Generated_Source\PSoC5/CapSense_CSD_CSHL.c ****     #if (CapSense_CSD_TOTAL_GENERICS_COUNT)
 484:Generated_Source\PSoC5/CapSense_CSD_CSHL.c ****         /* Exclude generic widget */
 485:Generated_Source\PSoC5/CapSense_CSD_CSHL.c ****         }
 486:Generated_Source\PSoC5/CapSense_CSD_CSHL.c ****     #endif  /* CapSense_CSD_TOTAL_GENERICS_COUNT */
 487:Generated_Source\PSoC5/CapSense_CSD_CSHL.c **** }
 518              		.loc 1 487 0
 519 011c 00BF     		nop
 520 011e 1837     		adds	r7, r7, #24
 521              		.cfi_def_cfa_offset 8
 522 0120 BD46     		mov	sp, r7
 523              		.cfi_def_cfa_register 13
 524              		@ sp needed
 525 0122 80BD     		pop	{r7, pc}
 526              	.L27:
 527              		.align	2
 528              	.L26:
 529 0124 00000000 		.word	CapSense_CSD_widgetNumber
 530 0128 00000000 		.word	CapSense_CSD_noiseThreshold
 531 012c 00000000 		.word	CapSense_CSD_sensorRaw
 532 0130 00000000 		.word	CapSense_CSD_sensorBaseline
 533 0134 00000000 		.word	CapSense_CSD_lowBaselineResetCnt
ARM GAS  C:\Users\ash750\AppData\Local\Temp\ccoL50IN.s 			page 19


 534 0138 00000000 		.word	CapSense_CSD_sensorBaselineLow
 535 013c 00000000 		.word	CapSense_CSD_sensorSignal
 536              		.cfi_endproc
 537              	.LFE4:
 538              		.size	CapSense_CSD_UpdateSensorBaseline, .-CapSense_CSD_UpdateSensorBaseline
 539              		.section	.text.CapSense_CSD_UpdateEnabledBaselines,"ax",%progbits
 540              		.align	2
 541              		.global	CapSense_CSD_UpdateEnabledBaselines
 542              		.thumb
 543              		.thumb_func
 544              		.type	CapSense_CSD_UpdateEnabledBaselines, %function
 545              	CapSense_CSD_UpdateEnabledBaselines:
 546              	.LFB5:
 488:Generated_Source\PSoC5/CapSense_CSD_CSHL.c **** 
 489:Generated_Source\PSoC5/CapSense_CSD_CSHL.c **** 
 490:Generated_Source\PSoC5/CapSense_CSD_CSHL.c **** /*******************************************************************************
 491:Generated_Source\PSoC5/CapSense_CSD_CSHL.c **** * Function Name: CapSense_CSD_UpdateEnabledBaselines
 492:Generated_Source\PSoC5/CapSense_CSD_CSHL.c **** ********************************************************************************
 493:Generated_Source\PSoC5/CapSense_CSD_CSHL.c **** *
 494:Generated_Source\PSoC5/CapSense_CSD_CSHL.c **** * Summary:
 495:Generated_Source\PSoC5/CapSense_CSD_CSHL.c **** *  Checks CapSense_CSD_sensorEnableMask[] array and calls the 
 496:Generated_Source\PSoC5/CapSense_CSD_CSHL.c **** *  CapSense_CSD_UpdateSensorBaseline function to update the baselines 
 497:Generated_Source\PSoC5/CapSense_CSD_CSHL.c **** *  for enabled sensors.
 498:Generated_Source\PSoC5/CapSense_CSD_CSHL.c **** *
 499:Generated_Source\PSoC5/CapSense_CSD_CSHL.c **** * Parameters:
 500:Generated_Source\PSoC5/CapSense_CSD_CSHL.c **** *  None
 501:Generated_Source\PSoC5/CapSense_CSD_CSHL.c **** *
 502:Generated_Source\PSoC5/CapSense_CSD_CSHL.c **** * Return:
 503:Generated_Source\PSoC5/CapSense_CSD_CSHL.c **** *  None
 504:Generated_Source\PSoC5/CapSense_CSD_CSHL.c **** *
 505:Generated_Source\PSoC5/CapSense_CSD_CSHL.c **** * Global Variables:
 506:Generated_Source\PSoC5/CapSense_CSD_CSHL.c **** *  CapSense_CSD_sensorEnableMask[] - used to store the sensor scanning 
 507:Generated_Source\PSoC5/CapSense_CSD_CSHL.c **** *  state.
 508:Generated_Source\PSoC5/CapSense_CSD_CSHL.c **** *  CapSense_CSD_sensorEnableMask[0] contains the masked bits for sensors 
 509:Generated_Source\PSoC5/CapSense_CSD_CSHL.c **** *   0 through 7 (sensor 0 is bit 0, sensor 1 is bit 1).
 510:Generated_Source\PSoC5/CapSense_CSD_CSHL.c **** *  CapSense_CSD_sensorEnableMask[1] contains the masked bits for 
 511:Generated_Source\PSoC5/CapSense_CSD_CSHL.c **** *  sensors 8 through 15 (if needed), and so on.
 512:Generated_Source\PSoC5/CapSense_CSD_CSHL.c **** *  0 - sensor doesn't scan by CapSense_CSD_ScanEnabledWidgets().
 513:Generated_Source\PSoC5/CapSense_CSD_CSHL.c **** *  1 - sensor scans by CapSense_CSD_ScanEnabledWidgets().
 514:Generated_Source\PSoC5/CapSense_CSD_CSHL.c **** *
 515:Generated_Source\PSoC5/CapSense_CSD_CSHL.c **** * Reentrant:
 516:Generated_Source\PSoC5/CapSense_CSD_CSHL.c **** *  No
 517:Generated_Source\PSoC5/CapSense_CSD_CSHL.c **** *
 518:Generated_Source\PSoC5/CapSense_CSD_CSHL.c **** *******************************************************************************/
 519:Generated_Source\PSoC5/CapSense_CSD_CSHL.c ****  void CapSense_CSD_UpdateEnabledBaselines(void)
 520:Generated_Source\PSoC5/CapSense_CSD_CSHL.c ****                                  
 521:Generated_Source\PSoC5/CapSense_CSD_CSHL.c **** {
 547              		.loc 1 521 0
 548              		.cfi_startproc
 549              		@ args = 0, pretend = 0, frame = 8
 550              		@ frame_needed = 1, uses_anonymous_args = 0
 551 0000 80B5     		push	{r7, lr}
 552              		.cfi_def_cfa_offset 8
 553              		.cfi_offset 7, -8
 554              		.cfi_offset 14, -4
 555 0002 82B0     		sub	sp, sp, #8
 556              		.cfi_def_cfa_offset 16
ARM GAS  C:\Users\ash750\AppData\Local\Temp\ccoL50IN.s 			page 20


 557 0004 00AF     		add	r7, sp, #0
 558              		.cfi_def_cfa_register 7
 522:Generated_Source\PSoC5/CapSense_CSD_CSHL.c ****     uint8 i;
 523:Generated_Source\PSoC5/CapSense_CSD_CSHL.c ****     uint8 pos;
 524:Generated_Source\PSoC5/CapSense_CSD_CSHL.c ****     uint8 enMask;
 525:Generated_Source\PSoC5/CapSense_CSD_CSHL.c ****     
 526:Generated_Source\PSoC5/CapSense_CSD_CSHL.c ****     for(i = 0u; i < CapSense_CSD_TOTAL_SENSOR_COUNT; i++)
 559              		.loc 1 526 0
 560 0006 0023     		movs	r3, #0
 561 0008 FB71     		strb	r3, [r7, #7]
 562 000a 18E0     		b	.L29
 563              	.L31:
 527:Generated_Source\PSoC5/CapSense_CSD_CSHL.c ****     {
 528:Generated_Source\PSoC5/CapSense_CSD_CSHL.c ****         pos = (i >> 3u);
 564              		.loc 1 528 0
 565 000c FB79     		ldrb	r3, [r7, #7]	@ zero_extendqisi2
 566 000e DB08     		lsrs	r3, r3, #3
 567 0010 BB71     		strb	r3, [r7, #6]
 529:Generated_Source\PSoC5/CapSense_CSD_CSHL.c ****         enMask = (uint8)(0x01u << (i & 0x07u));
 568              		.loc 1 529 0
 569 0012 FB79     		ldrb	r3, [r7, #7]	@ zero_extendqisi2
 570 0014 03F00703 		and	r3, r3, #7
 571 0018 0122     		movs	r2, #1
 572 001a 02FA03F3 		lsl	r3, r2, r3
 573 001e 7B71     		strb	r3, [r7, #5]
 530:Generated_Source\PSoC5/CapSense_CSD_CSHL.c ****         if((CapSense_CSD_sensorEnableMask[pos] & enMask) != 0u)
 574              		.loc 1 530 0
 575 0020 BB79     		ldrb	r3, [r7, #6]	@ zero_extendqisi2
 576 0022 0A4A     		ldr	r2, .L32
 577 0024 D25C     		ldrb	r2, [r2, r3]	@ zero_extendqisi2
 578 0026 7B79     		ldrb	r3, [r7, #5]
 579 0028 1340     		ands	r3, r3, r2
 580 002a DBB2     		uxtb	r3, r3
 581 002c 002B     		cmp	r3, #0
 582 002e 03D0     		beq	.L30
 531:Generated_Source\PSoC5/CapSense_CSD_CSHL.c ****         {
 532:Generated_Source\PSoC5/CapSense_CSD_CSHL.c ****             CapSense_CSD_UpdateSensorBaseline(i);
 583              		.loc 1 532 0
 584 0030 FB79     		ldrb	r3, [r7, #7]	@ zero_extendqisi2
 585 0032 1846     		mov	r0, r3
 586 0034 FFF7FEFF 		bl	CapSense_CSD_UpdateSensorBaseline
 587              	.L30:
 526:Generated_Source\PSoC5/CapSense_CSD_CSHL.c ****     {
 588              		.loc 1 526 0 discriminator 2
 589 0038 FB79     		ldrb	r3, [r7, #7]	@ zero_extendqisi2
 590 003a 0133     		adds	r3, r3, #1
 591 003c FB71     		strb	r3, [r7, #7]
 592              	.L29:
 526:Generated_Source\PSoC5/CapSense_CSD_CSHL.c ****     {
 593              		.loc 1 526 0 is_stmt 0 discriminator 1
 594 003e FB79     		ldrb	r3, [r7, #7]	@ zero_extendqisi2
 595 0040 002B     		cmp	r3, #0
 596 0042 E3D0     		beq	.L31
 533:Generated_Source\PSoC5/CapSense_CSD_CSHL.c ****         }
 534:Generated_Source\PSoC5/CapSense_CSD_CSHL.c ****     }
 535:Generated_Source\PSoC5/CapSense_CSD_CSHL.c **** }
 597              		.loc 1 535 0 is_stmt 1
ARM GAS  C:\Users\ash750\AppData\Local\Temp\ccoL50IN.s 			page 21


 598 0044 00BF     		nop
 599 0046 0837     		adds	r7, r7, #8
 600              		.cfi_def_cfa_offset 8
 601 0048 BD46     		mov	sp, r7
 602              		.cfi_def_cfa_register 13
 603              		@ sp needed
 604 004a 80BD     		pop	{r7, pc}
 605              	.L33:
 606              		.align	2
 607              	.L32:
 608 004c 00000000 		.word	CapSense_CSD_sensorEnableMask
 609              		.cfi_endproc
 610              	.LFE5:
 611              		.size	CapSense_CSD_UpdateEnabledBaselines, .-CapSense_CSD_UpdateEnabledBaselines
 612              		.section	.text.CapSense_CSD_CheckIsSensorActive,"ax",%progbits
 613              		.align	2
 614              		.global	CapSense_CSD_CheckIsSensorActive
 615              		.thumb
 616              		.thumb_func
 617              		.type	CapSense_CSD_CheckIsSensorActive, %function
 618              	CapSense_CSD_CheckIsSensorActive:
 619              	.LFB6:
 536:Generated_Source\PSoC5/CapSense_CSD_CSHL.c **** 
 537:Generated_Source\PSoC5/CapSense_CSD_CSHL.c **** 
 538:Generated_Source\PSoC5/CapSense_CSD_CSHL.c **** /*******************************************************************************
 539:Generated_Source\PSoC5/CapSense_CSD_CSHL.c **** * Function Name: CapSense_CSD_CheckIsSensorActive
 540:Generated_Source\PSoC5/CapSense_CSD_CSHL.c **** ********************************************************************************
 541:Generated_Source\PSoC5/CapSense_CSD_CSHL.c **** *
 542:Generated_Source\PSoC5/CapSense_CSD_CSHL.c **** * Summary:
 543:Generated_Source\PSoC5/CapSense_CSD_CSHL.c **** *  Compares the CapSense_CSD_SensorSignal[sensor] array element to finger
 544:Generated_Source\PSoC5/CapSense_CSD_CSHL.c **** *  threshold of widget it belongs to. The hysteresis and debounce are taken into 
 545:Generated_Source\PSoC5/CapSense_CSD_CSHL.c **** *  account. The hysteresis is added or subtracted from the finger threshold 
 546:Generated_Source\PSoC5/CapSense_CSD_CSHL.c **** *  based on whether the sensor is currently active. 
 547:Generated_Source\PSoC5/CapSense_CSD_CSHL.c **** *  If the sensor is active, the threshold is lowered by the hysteresis amount.
 548:Generated_Source\PSoC5/CapSense_CSD_CSHL.c **** *  If the sensor is inactive, the threshold is raised by the hysteresis amount.
 549:Generated_Source\PSoC5/CapSense_CSD_CSHL.c **** *  The debounce counter added to the sensor active transition.
 550:Generated_Source\PSoC5/CapSense_CSD_CSHL.c **** *  This function updates CapSense_CSD_SensorOnMask[] array element.
 551:Generated_Source\PSoC5/CapSense_CSD_CSHL.c **** *
 552:Generated_Source\PSoC5/CapSense_CSD_CSHL.c **** * Parameters:
 553:Generated_Source\PSoC5/CapSense_CSD_CSHL.c **** *  sensor:  Sensor number.
 554:Generated_Source\PSoC5/CapSense_CSD_CSHL.c **** *
 555:Generated_Source\PSoC5/CapSense_CSD_CSHL.c **** * Return:
 556:Generated_Source\PSoC5/CapSense_CSD_CSHL.c **** *  Returns sensor state 1 if active, 0 if not active.
 557:Generated_Source\PSoC5/CapSense_CSD_CSHL.c **** *
 558:Generated_Source\PSoC5/CapSense_CSD_CSHL.c **** * Global Variables:
 559:Generated_Source\PSoC5/CapSense_CSD_CSHL.c **** *  CapSense_CSD_sensorSignal[]      - used to store diffence between 
 560:Generated_Source\PSoC5/CapSense_CSD_CSHL.c **** *  current value of raw data and previous value of baseline.
 561:Generated_Source\PSoC5/CapSense_CSD_CSHL.c **** *  CapSense_CSD_debounceCounter[]   - used to store current debounce 
 562:Generated_Source\PSoC5/CapSense_CSD_CSHL.c **** *  counter of sensor. Widget which has this parameter are buttons, matrix 
 563:Generated_Source\PSoC5/CapSense_CSD_CSHL.c **** *  buttons, proximity, guard. All other widgets haven't debounce parameter
 564:Generated_Source\PSoC5/CapSense_CSD_CSHL.c **** *  and use the last element of this array with value 0 (it means no debounce).
 565:Generated_Source\PSoC5/CapSense_CSD_CSHL.c **** *  CapSense_CSD_sensorOnMask[] - used to store sensors on/off state.
 566:Generated_Source\PSoC5/CapSense_CSD_CSHL.c **** *  CapSense_CSD_sensorOnMask[0] contains the masked bits for sensors 
 567:Generated_Source\PSoC5/CapSense_CSD_CSHL.c **** *   0 through 7 (sensor 0 is bit 0, sensor 1 is bit 1).
 568:Generated_Source\PSoC5/CapSense_CSD_CSHL.c **** *  CapSense_CSD_sensorEnableMask[1] contains the masked bits for 
 569:Generated_Source\PSoC5/CapSense_CSD_CSHL.c **** *  sensors 8 through 15 (if needed), and so on.
 570:Generated_Source\PSoC5/CapSense_CSD_CSHL.c **** *  0 - sensor is inactive.
ARM GAS  C:\Users\ash750\AppData\Local\Temp\ccoL50IN.s 			page 22


 571:Generated_Source\PSoC5/CapSense_CSD_CSHL.c **** *  1 - sensor is active.
 572:Generated_Source\PSoC5/CapSense_CSD_CSHL.c **** *
 573:Generated_Source\PSoC5/CapSense_CSD_CSHL.c **** * Reentrant:
 574:Generated_Source\PSoC5/CapSense_CSD_CSHL.c **** *  No
 575:Generated_Source\PSoC5/CapSense_CSD_CSHL.c **** *
 576:Generated_Source\PSoC5/CapSense_CSD_CSHL.c **** *******************************************************************************/
 577:Generated_Source\PSoC5/CapSense_CSD_CSHL.c **** uint8 CapSense_CSD_CheckIsSensorActive(uint8 sensor)
 578:Generated_Source\PSoC5/CapSense_CSD_CSHL.c ****                                   
 579:Generated_Source\PSoC5/CapSense_CSD_CSHL.c **** {
 620              		.loc 1 579 0
 621              		.cfi_startproc
 622              		@ args = 0, pretend = 0, frame = 24
 623              		@ frame_needed = 1, uses_anonymous_args = 0
 624              		@ link register save eliminated.
 625 0000 80B4     		push	{r7}
 626              		.cfi_def_cfa_offset 4
 627              		.cfi_offset 7, -4
 628 0002 87B0     		sub	sp, sp, #28
 629              		.cfi_def_cfa_offset 32
 630 0004 00AF     		add	r7, sp, #0
 631              		.cfi_def_cfa_register 7
 632 0006 0346     		mov	r3, r0
 633 0008 FB71     		strb	r3, [r7, #7]
 580:Generated_Source\PSoC5/CapSense_CSD_CSHL.c ****     uint8 debounceIndex;
 581:Generated_Source\PSoC5/CapSense_CSD_CSHL.c ****     /* Get On/Off mask */
 582:Generated_Source\PSoC5/CapSense_CSD_CSHL.c ****     uint8 pos = (sensor >> 3u);
 634              		.loc 1 582 0
 635 000a FB79     		ldrb	r3, [r7, #7]	@ zero_extendqisi2
 636 000c DB08     		lsrs	r3, r3, #3
 637 000e FB75     		strb	r3, [r7, #23]
 583:Generated_Source\PSoC5/CapSense_CSD_CSHL.c ****     uint8 onMask = 0x01u << (sensor & 0x07u);
 638              		.loc 1 583 0
 639 0010 FB79     		ldrb	r3, [r7, #7]	@ zero_extendqisi2
 640 0012 03F00703 		and	r3, r3, #7
 641 0016 0122     		movs	r2, #1
 642 0018 02FA03F3 		lsl	r3, r2, r3
 643 001c BB75     		strb	r3, [r7, #22]
 584:Generated_Source\PSoC5/CapSense_CSD_CSHL.c ****     /* Prepare to find debounce counter index */
 585:Generated_Source\PSoC5/CapSense_CSD_CSHL.c ****     uint8 widget = CapSense_CSD_widgetNumber[sensor];
 644              		.loc 1 585 0
 645 001e FB79     		ldrb	r3, [r7, #7]	@ zero_extendqisi2
 646 0020 344A     		ldr	r2, .L43
 647 0022 D35C     		ldrb	r3, [r2, r3]
 648 0024 7B75     		strb	r3, [r7, #21]
 586:Generated_Source\PSoC5/CapSense_CSD_CSHL.c ****     uint16 fingerThreshold = CapSense_CSD_fingerThreshold[widget];
 649              		.loc 1 586 0
 650 0026 7B7D     		ldrb	r3, [r7, #21]	@ zero_extendqisi2
 651 0028 334A     		ldr	r2, .L43+4
 652 002a 32F81330 		ldrh	r3, [r2, r3, lsl #1]	@ movhi
 653 002e 7B82     		strh	r3, [r7, #18]	@ movhi
 587:Generated_Source\PSoC5/CapSense_CSD_CSHL.c ****     uint16 hysteresis = CapSense_CSD_hysteresis[widget];
 654              		.loc 1 587 0
 655 0030 7B7D     		ldrb	r3, [r7, #21]	@ zero_extendqisi2
 656 0032 324A     		ldr	r2, .L43+8
 657 0034 32F81330 		ldrh	r3, [r2, r3, lsl #1]	@ movhi
 658 0038 3B82     		strh	r3, [r7, #16]	@ movhi
 588:Generated_Source\PSoC5/CapSense_CSD_CSHL.c ****     uint8 debounce = CapSense_CSD_debounce[widget];
ARM GAS  C:\Users\ash750\AppData\Local\Temp\ccoL50IN.s 			page 23


 659              		.loc 1 588 0
 660 003a 7B7D     		ldrb	r3, [r7, #21]	@ zero_extendqisi2
 661 003c 304A     		ldr	r2, .L43+12
 662 003e D35C     		ldrb	r3, [r2, r3]
 663 0040 FB73     		strb	r3, [r7, #15]
 589:Generated_Source\PSoC5/CapSense_CSD_CSHL.c ****     
 590:Generated_Source\PSoC5/CapSense_CSD_CSHL.c ****     debounceIndex = widget;
 664              		.loc 1 590 0
 665 0042 7B7D     		ldrb	r3, [r7, #21]
 666 0044 BB73     		strb	r3, [r7, #14]
 591:Generated_Source\PSoC5/CapSense_CSD_CSHL.c **** 
 592:Generated_Source\PSoC5/CapSense_CSD_CSHL.c ****     
 593:Generated_Source\PSoC5/CapSense_CSD_CSHL.c ****     /* Was on */
 594:Generated_Source\PSoC5/CapSense_CSD_CSHL.c ****     if (0u != (CapSense_CSD_sensorOnMask[pos] & onMask))
 667              		.loc 1 594 0
 668 0046 FB7D     		ldrb	r3, [r7, #23]	@ zero_extendqisi2
 669 0048 2E4A     		ldr	r2, .L43+16
 670 004a D25C     		ldrb	r2, [r2, r3]	@ zero_extendqisi2
 671 004c BB7D     		ldrb	r3, [r7, #22]
 672 004e 1340     		ands	r3, r3, r2
 673 0050 DBB2     		uxtb	r3, r3
 674 0052 002B     		cmp	r3, #0
 675 0054 19D0     		beq	.L35
 595:Generated_Source\PSoC5/CapSense_CSD_CSHL.c ****     {
 596:Generated_Source\PSoC5/CapSense_CSD_CSHL.c ****         /* Hysteresis minus */
 597:Generated_Source\PSoC5/CapSense_CSD_CSHL.c ****         if (CapSense_CSD_sensorSignal[sensor] < (fingerThreshold - hysteresis))
 676              		.loc 1 597 0
 677 0056 FB79     		ldrb	r3, [r7, #7]	@ zero_extendqisi2
 678 0058 2B4A     		ldr	r2, .L43+20
 679 005a 32F81330 		ldrh	r3, [r2, r3, lsl #1]
 680 005e 1946     		mov	r1, r3
 681 0060 7A8A     		ldrh	r2, [r7, #18]
 682 0062 3B8A     		ldrh	r3, [r7, #16]
 683 0064 D31A     		subs	r3, r2, r3
 684 0066 9942     		cmp	r1, r3
 685 0068 33DA     		bge	.L37
 598:Generated_Source\PSoC5/CapSense_CSD_CSHL.c ****         {
 599:Generated_Source\PSoC5/CapSense_CSD_CSHL.c ****             CapSense_CSD_sensorOnMask[pos] &= (uint8)~onMask;
 686              		.loc 1 599 0
 687 006a FB7D     		ldrb	r3, [r7, #23]	@ zero_extendqisi2
 688 006c FA7D     		ldrb	r2, [r7, #23]	@ zero_extendqisi2
 689 006e 2549     		ldr	r1, .L43+16
 690 0070 895C     		ldrb	r1, [r1, r2]	@ zero_extendqisi2
 691 0072 BA7D     		ldrb	r2, [r7, #22]
 692 0074 D243     		mvns	r2, r2
 693 0076 D2B2     		uxtb	r2, r2
 694 0078 0A40     		ands	r2, r2, r1
 695 007a D1B2     		uxtb	r1, r2
 696 007c 214A     		ldr	r2, .L43+16
 697 007e D154     		strb	r1, [r2, r3]
 600:Generated_Source\PSoC5/CapSense_CSD_CSHL.c ****             CapSense_CSD_debounceCounter[debounceIndex] = debounce; 
 698              		.loc 1 600 0
 699 0080 BB7B     		ldrb	r3, [r7, #14]	@ zero_extendqisi2
 700 0082 2249     		ldr	r1, .L43+24
 701 0084 FA7B     		ldrb	r2, [r7, #15]
 702 0086 CA54     		strb	r2, [r1, r3]
 703 0088 23E0     		b	.L37
ARM GAS  C:\Users\ash750\AppData\Local\Temp\ccoL50IN.s 			page 24


 704              	.L35:
 601:Generated_Source\PSoC5/CapSense_CSD_CSHL.c ****         }
 602:Generated_Source\PSoC5/CapSense_CSD_CSHL.c ****     }
 603:Generated_Source\PSoC5/CapSense_CSD_CSHL.c ****     else    /* Was off */
 604:Generated_Source\PSoC5/CapSense_CSD_CSHL.c ****     {
 605:Generated_Source\PSoC5/CapSense_CSD_CSHL.c ****         /* Hysteresis plus */
 606:Generated_Source\PSoC5/CapSense_CSD_CSHL.c ****         if (CapSense_CSD_sensorSignal[sensor] > (fingerThreshold + hysteresis))
 705              		.loc 1 606 0
 706 008a FB79     		ldrb	r3, [r7, #7]	@ zero_extendqisi2
 707 008c 1E4A     		ldr	r2, .L43+20
 708 008e 32F81330 		ldrh	r3, [r2, r3, lsl #1]
 709 0092 1946     		mov	r1, r3
 710 0094 7A8A     		ldrh	r2, [r7, #18]
 711 0096 3B8A     		ldrh	r3, [r7, #16]
 712 0098 1344     		add	r3, r3, r2
 713 009a 9942     		cmp	r1, r3
 714 009c 15DD     		ble	.L38
 607:Generated_Source\PSoC5/CapSense_CSD_CSHL.c ****         {
 608:Generated_Source\PSoC5/CapSense_CSD_CSHL.c ****             /* Sensor active, decrement debounce counter */
 609:Generated_Source\PSoC5/CapSense_CSD_CSHL.c ****             if (CapSense_CSD_debounceCounter[debounceIndex] <= 1u)
 715              		.loc 1 609 0
 716 009e BB7B     		ldrb	r3, [r7, #14]	@ zero_extendqisi2
 717 00a0 1A4A     		ldr	r2, .L43+24
 718 00a2 D35C     		ldrb	r3, [r2, r3]	@ zero_extendqisi2
 719 00a4 012B     		cmp	r3, #1
 720 00a6 08D8     		bhi	.L39
 610:Generated_Source\PSoC5/CapSense_CSD_CSHL.c ****             {
 611:Generated_Source\PSoC5/CapSense_CSD_CSHL.c ****                 CapSense_CSD_sensorOnMask[pos] |= onMask; 
 721              		.loc 1 611 0
 722 00a8 FB7D     		ldrb	r3, [r7, #23]	@ zero_extendqisi2
 723 00aa FA7D     		ldrb	r2, [r7, #23]	@ zero_extendqisi2
 724 00ac 1549     		ldr	r1, .L43+16
 725 00ae 895C     		ldrb	r1, [r1, r2]	@ zero_extendqisi2
 726 00b0 BA7D     		ldrb	r2, [r7, #22]
 727 00b2 0A43     		orrs	r2, r2, r1
 728 00b4 D1B2     		uxtb	r1, r2
 729 00b6 134A     		ldr	r2, .L43+16
 730 00b8 D154     		strb	r1, [r2, r3]
 731              	.L39:
 612:Generated_Source\PSoC5/CapSense_CSD_CSHL.c ****             }
 613:Generated_Source\PSoC5/CapSense_CSD_CSHL.c ****             CapSense_CSD_debounceCounter[debounceIndex]--;
 732              		.loc 1 613 0
 733 00ba BB7B     		ldrb	r3, [r7, #14]	@ zero_extendqisi2
 734 00bc 134A     		ldr	r2, .L43+24
 735 00be D25C     		ldrb	r2, [r2, r3]	@ zero_extendqisi2
 736 00c0 013A     		subs	r2, r2, #1
 737 00c2 D1B2     		uxtb	r1, r2
 738 00c4 114A     		ldr	r2, .L43+24
 739 00c6 D154     		strb	r1, [r2, r3]
 740 00c8 03E0     		b	.L37
 741              	.L38:
 614:Generated_Source\PSoC5/CapSense_CSD_CSHL.c ****         }
 615:Generated_Source\PSoC5/CapSense_CSD_CSHL.c ****         else
 616:Generated_Source\PSoC5/CapSense_CSD_CSHL.c ****         {
 617:Generated_Source\PSoC5/CapSense_CSD_CSHL.c ****             /* Sensor inactive - reset Debounce counter */
 618:Generated_Source\PSoC5/CapSense_CSD_CSHL.c ****             CapSense_CSD_debounceCounter[debounceIndex] = debounce;
 742              		.loc 1 618 0
ARM GAS  C:\Users\ash750\AppData\Local\Temp\ccoL50IN.s 			page 25


 743 00ca BB7B     		ldrb	r3, [r7, #14]	@ zero_extendqisi2
 744 00cc 0F49     		ldr	r1, .L43+24
 745 00ce FA7B     		ldrb	r2, [r7, #15]
 746 00d0 CA54     		strb	r2, [r1, r3]
 747              	.L37:
 619:Generated_Source\PSoC5/CapSense_CSD_CSHL.c ****         }
 620:Generated_Source\PSoC5/CapSense_CSD_CSHL.c ****     }
 621:Generated_Source\PSoC5/CapSense_CSD_CSHL.c ****     
 622:Generated_Source\PSoC5/CapSense_CSD_CSHL.c ****     return (((CapSense_CSD_sensorOnMask[pos] & onMask) != 0u) ? 1u : 0u);
 748              		.loc 1 622 0
 749 00d2 FB7D     		ldrb	r3, [r7, #23]	@ zero_extendqisi2
 750 00d4 0B4A     		ldr	r2, .L43+16
 751 00d6 D25C     		ldrb	r2, [r2, r3]	@ zero_extendqisi2
 752 00d8 BB7D     		ldrb	r3, [r7, #22]
 753 00da 1340     		ands	r3, r3, r2
 754 00dc DBB2     		uxtb	r3, r3
 755 00de 002B     		cmp	r3, #0
 756 00e0 01D0     		beq	.L40
 757              		.loc 1 622 0 is_stmt 0 discriminator 1
 758 00e2 0123     		movs	r3, #1
 759 00e4 00E0     		b	.L41
 760              	.L40:
 761              		.loc 1 622 0 discriminator 2
 762 00e6 0023     		movs	r3, #0
 763              	.L41:
 623:Generated_Source\PSoC5/CapSense_CSD_CSHL.c **** }
 764              		.loc 1 623 0 is_stmt 1 discriminator 4
 765 00e8 1846     		mov	r0, r3
 766 00ea 1C37     		adds	r7, r7, #28
 767              		.cfi_def_cfa_offset 4
 768 00ec BD46     		mov	sp, r7
 769              		.cfi_def_cfa_register 13
 770              		@ sp needed
 771 00ee 80BC     		pop	{r7}
 772              		.cfi_restore 7
 773              		.cfi_def_cfa_offset 0
 774 00f0 7047     		bx	lr
 775              	.L44:
 776 00f2 00BF     		.align	2
 777              	.L43:
 778 00f4 00000000 		.word	CapSense_CSD_widgetNumber
 779 00f8 00000000 		.word	CapSense_CSD_fingerThreshold
 780 00fc 00000000 		.word	CapSense_CSD_hysteresis
 781 0100 00000000 		.word	CapSense_CSD_debounce
 782 0104 00000000 		.word	CapSense_CSD_sensorOnMask
 783 0108 00000000 		.word	CapSense_CSD_sensorSignal
 784 010c 00000000 		.word	CapSense_CSD_debounceCounter
 785              		.cfi_endproc
 786              	.LFE6:
 787              		.size	CapSense_CSD_CheckIsSensorActive, .-CapSense_CSD_CheckIsSensorActive
 788              		.section	.text.CapSense_CSD_CheckIsWidgetActive,"ax",%progbits
 789              		.align	2
 790              		.global	CapSense_CSD_CheckIsWidgetActive
 791              		.thumb
 792              		.thumb_func
 793              		.type	CapSense_CSD_CheckIsWidgetActive, %function
 794              	CapSense_CSD_CheckIsWidgetActive:
ARM GAS  C:\Users\ash750\AppData\Local\Temp\ccoL50IN.s 			page 26


 795              	.LFB7:
 624:Generated_Source\PSoC5/CapSense_CSD_CSHL.c **** 
 625:Generated_Source\PSoC5/CapSense_CSD_CSHL.c **** 
 626:Generated_Source\PSoC5/CapSense_CSD_CSHL.c **** /*******************************************************************************
 627:Generated_Source\PSoC5/CapSense_CSD_CSHL.c **** * Function Name: CapSense_CSD_CheckIsWidgetActive
 628:Generated_Source\PSoC5/CapSense_CSD_CSHL.c **** ********************************************************************************
 629:Generated_Source\PSoC5/CapSense_CSD_CSHL.c **** *
 630:Generated_Source\PSoC5/CapSense_CSD_CSHL.c **** * Summary:
 631:Generated_Source\PSoC5/CapSense_CSD_CSHL.c **** *  Use function CapSense_CSD_CheckIsSensorActive() to update 
 632:Generated_Source\PSoC5/CapSense_CSD_CSHL.c **** *  CapSense_CSD_sensorOnMask[] for all sensors within the widget.
 633:Generated_Source\PSoC5/CapSense_CSD_CSHL.c **** *  If one of sensors within widget is active the function return that widget is 
 634:Generated_Source\PSoC5/CapSense_CSD_CSHL.c **** *  active.
 635:Generated_Source\PSoC5/CapSense_CSD_CSHL.c **** *  The touch pad and matrix buttons widgets need to have active sensor within 
 636:Generated_Source\PSoC5/CapSense_CSD_CSHL.c **** *  col and row to return widget active status.
 637:Generated_Source\PSoC5/CapSense_CSD_CSHL.c **** *
 638:Generated_Source\PSoC5/CapSense_CSD_CSHL.c **** * Parameters:
 639:Generated_Source\PSoC5/CapSense_CSD_CSHL.c **** *  widget:  widget number.
 640:Generated_Source\PSoC5/CapSense_CSD_CSHL.c **** *
 641:Generated_Source\PSoC5/CapSense_CSD_CSHL.c **** * Return:
 642:Generated_Source\PSoC5/CapSense_CSD_CSHL.c **** *  Returns widget sensor state 1 if one or more sensors within widget is/are 
 643:Generated_Source\PSoC5/CapSense_CSD_CSHL.c **** *  active, 0 if all sensors within widget are inactive.
 644:Generated_Source\PSoC5/CapSense_CSD_CSHL.c **** *
 645:Generated_Source\PSoC5/CapSense_CSD_CSHL.c **** * Reentrant:
 646:Generated_Source\PSoC5/CapSense_CSD_CSHL.c **** *  No
 647:Generated_Source\PSoC5/CapSense_CSD_CSHL.c **** *
 648:Generated_Source\PSoC5/CapSense_CSD_CSHL.c **** *******************************************************************************/
 649:Generated_Source\PSoC5/CapSense_CSD_CSHL.c **** uint8 CapSense_CSD_CheckIsWidgetActive(uint8 widget)
 650:Generated_Source\PSoC5/CapSense_CSD_CSHL.c ****                                  
 651:Generated_Source\PSoC5/CapSense_CSD_CSHL.c **** {
 796              		.loc 1 651 0
 797              		.cfi_startproc
 798              		@ args = 0, pretend = 0, frame = 16
 799              		@ frame_needed = 1, uses_anonymous_args = 0
 800 0000 80B5     		push	{r7, lr}
 801              		.cfi_def_cfa_offset 8
 802              		.cfi_offset 7, -8
 803              		.cfi_offset 14, -4
 804 0002 84B0     		sub	sp, sp, #16
 805              		.cfi_def_cfa_offset 24
 806 0004 00AF     		add	r7, sp, #0
 807              		.cfi_def_cfa_register 7
 808 0006 0346     		mov	r3, r0
 809 0008 FB71     		strb	r3, [r7, #7]
 652:Generated_Source\PSoC5/CapSense_CSD_CSHL.c ****     uint8 rawIndex = CapSense_CSD_rawDataIndex[widget];
 810              		.loc 1 652 0
 811 000a 0023     		movs	r3, #0
 812 000c FB73     		strb	r3, [r7, #15]
 653:Generated_Source\PSoC5/CapSense_CSD_CSHL.c ****     uint8 numberOfSensors = CapSense_CSD_numberOfSensors[widget] + rawIndex;
 813              		.loc 1 653 0
 814 000e 0122     		movs	r2, #1
 815 0010 FB7B     		ldrb	r3, [r7, #15]
 816 0012 1344     		add	r3, r3, r2
 817 0014 7B73     		strb	r3, [r7, #13]
 654:Generated_Source\PSoC5/CapSense_CSD_CSHL.c ****     uint8 state = 0u;
 818              		.loc 1 654 0
 819 0016 0023     		movs	r3, #0
 820 0018 BB73     		strb	r3, [r7, #14]
ARM GAS  C:\Users\ash750\AppData\Local\Temp\ccoL50IN.s 			page 27


 821              	.L47:
 655:Generated_Source\PSoC5/CapSense_CSD_CSHL.c **** 
 656:Generated_Source\PSoC5/CapSense_CSD_CSHL.c ****     /* Check all sensors of the widget */
 657:Generated_Source\PSoC5/CapSense_CSD_CSHL.c ****     do
 658:Generated_Source\PSoC5/CapSense_CSD_CSHL.c ****     {
 659:Generated_Source\PSoC5/CapSense_CSD_CSHL.c ****         if(CapSense_CSD_CheckIsSensorActive(rawIndex) != 0u)
 822              		.loc 1 659 0
 823 001a FB7B     		ldrb	r3, [r7, #15]	@ zero_extendqisi2
 824 001c 1846     		mov	r0, r3
 825 001e FFF7FEFF 		bl	CapSense_CSD_CheckIsSensorActive
 826 0022 0346     		mov	r3, r0
 827 0024 002B     		cmp	r3, #0
 828 0026 01D0     		beq	.L46
 660:Generated_Source\PSoC5/CapSense_CSD_CSHL.c ****         {
 661:Generated_Source\PSoC5/CapSense_CSD_CSHL.c ****             state = CapSense_CSD_SENSOR_1_IS_ACTIVE;
 829              		.loc 1 661 0
 830 0028 0123     		movs	r3, #1
 831 002a BB73     		strb	r3, [r7, #14]
 832              	.L46:
 662:Generated_Source\PSoC5/CapSense_CSD_CSHL.c ****         }
 663:Generated_Source\PSoC5/CapSense_CSD_CSHL.c ****         rawIndex++;
 833              		.loc 1 663 0
 834 002c FB7B     		ldrb	r3, [r7, #15]	@ zero_extendqisi2
 835 002e 0133     		adds	r3, r3, #1
 836 0030 FB73     		strb	r3, [r7, #15]
 664:Generated_Source\PSoC5/CapSense_CSD_CSHL.c ****     }
 665:Generated_Source\PSoC5/CapSense_CSD_CSHL.c ****     while(rawIndex < numberOfSensors);
 837              		.loc 1 665 0
 838 0032 FA7B     		ldrb	r2, [r7, #15]	@ zero_extendqisi2
 839 0034 7B7B     		ldrb	r3, [r7, #13]	@ zero_extendqisi2
 840 0036 9A42     		cmp	r2, r3
 841 0038 EFD3     		bcc	.L47
 666:Generated_Source\PSoC5/CapSense_CSD_CSHL.c ****     
 667:Generated_Source\PSoC5/CapSense_CSD_CSHL.c **** 
 668:Generated_Source\PSoC5/CapSense_CSD_CSHL.c ****     
 669:Generated_Source\PSoC5/CapSense_CSD_CSHL.c ****     return (state);
 842              		.loc 1 669 0
 843 003a BB7B     		ldrb	r3, [r7, #14]	@ zero_extendqisi2
 670:Generated_Source\PSoC5/CapSense_CSD_CSHL.c **** }
 844              		.loc 1 670 0
 845 003c 1846     		mov	r0, r3
 846 003e 1037     		adds	r7, r7, #16
 847              		.cfi_def_cfa_offset 8
 848 0040 BD46     		mov	sp, r7
 849              		.cfi_def_cfa_register 13
 850              		@ sp needed
 851 0042 80BD     		pop	{r7, pc}
 852              		.cfi_endproc
 853              	.LFE7:
 854              		.size	CapSense_CSD_CheckIsWidgetActive, .-CapSense_CSD_CheckIsWidgetActive
 855              		.section	.text.CapSense_CSD_CheckIsAnyWidgetActive,"ax",%progbits
 856              		.align	2
 857              		.global	CapSense_CSD_CheckIsAnyWidgetActive
 858              		.thumb
 859              		.thumb_func
 860              		.type	CapSense_CSD_CheckIsAnyWidgetActive, %function
 861              	CapSense_CSD_CheckIsAnyWidgetActive:
ARM GAS  C:\Users\ash750\AppData\Local\Temp\ccoL50IN.s 			page 28


 862              	.LFB8:
 671:Generated_Source\PSoC5/CapSense_CSD_CSHL.c **** 
 672:Generated_Source\PSoC5/CapSense_CSD_CSHL.c **** 
 673:Generated_Source\PSoC5/CapSense_CSD_CSHL.c **** /*******************************************************************************
 674:Generated_Source\PSoC5/CapSense_CSD_CSHL.c **** * Function Name: CapSense_CSD_CheckIsAnyWidgetActive
 675:Generated_Source\PSoC5/CapSense_CSD_CSHL.c **** ********************************************************************************
 676:Generated_Source\PSoC5/CapSense_CSD_CSHL.c **** *
 677:Generated_Source\PSoC5/CapSense_CSD_CSHL.c **** * Summary:
 678:Generated_Source\PSoC5/CapSense_CSD_CSHL.c **** *  Compares all sensors of the CapSense_CSD_signal[] array to their finger 
 679:Generated_Source\PSoC5/CapSense_CSD_CSHL.c **** *  threshold. Calls CapSense_CSD_CheckIsWidgetActive() for each widget so 
 680:Generated_Source\PSoC5/CapSense_CSD_CSHL.c **** *  the CapSense_CSD_SensorOnMask[] array is up to date after calling this 
 681:Generated_Source\PSoC5/CapSense_CSD_CSHL.c **** *  function.
 682:Generated_Source\PSoC5/CapSense_CSD_CSHL.c **** *
 683:Generated_Source\PSoC5/CapSense_CSD_CSHL.c **** * Parameters:
 684:Generated_Source\PSoC5/CapSense_CSD_CSHL.c **** *  widget:  widget number.
 685:Generated_Source\PSoC5/CapSense_CSD_CSHL.c **** *
 686:Generated_Source\PSoC5/CapSense_CSD_CSHL.c **** * Return:
 687:Generated_Source\PSoC5/CapSense_CSD_CSHL.c **** *  Returns 1 if any widget is active, 0 none of widgets are active.
 688:Generated_Source\PSoC5/CapSense_CSD_CSHL.c **** *
 689:Generated_Source\PSoC5/CapSense_CSD_CSHL.c **** * Reentrant:
 690:Generated_Source\PSoC5/CapSense_CSD_CSHL.c **** *  No
 691:Generated_Source\PSoC5/CapSense_CSD_CSHL.c **** *
 692:Generated_Source\PSoC5/CapSense_CSD_CSHL.c **** *******************************************************************************/
 693:Generated_Source\PSoC5/CapSense_CSD_CSHL.c **** uint8 CapSense_CSD_CheckIsAnyWidgetActive(void)
 694:Generated_Source\PSoC5/CapSense_CSD_CSHL.c ****                                  
 695:Generated_Source\PSoC5/CapSense_CSD_CSHL.c **** {
 863              		.loc 1 695 0
 864              		.cfi_startproc
 865              		@ args = 0, pretend = 0, frame = 8
 866              		@ frame_needed = 1, uses_anonymous_args = 0
 867 0000 80B5     		push	{r7, lr}
 868              		.cfi_def_cfa_offset 8
 869              		.cfi_offset 7, -8
 870              		.cfi_offset 14, -4
 871 0002 82B0     		sub	sp, sp, #8
 872              		.cfi_def_cfa_offset 16
 873 0004 00AF     		add	r7, sp, #0
 874              		.cfi_def_cfa_register 7
 696:Generated_Source\PSoC5/CapSense_CSD_CSHL.c ****     uint8 i;
 697:Generated_Source\PSoC5/CapSense_CSD_CSHL.c ****     uint8 state = 0u;
 875              		.loc 1 697 0
 876 0006 0023     		movs	r3, #0
 877 0008 BB71     		strb	r3, [r7, #6]
 698:Generated_Source\PSoC5/CapSense_CSD_CSHL.c ****     
 699:Generated_Source\PSoC5/CapSense_CSD_CSHL.c ****     for(i = 0u; i < CapSense_CSD_TOTAL_WIDGET_COUNT; i++)
 878              		.loc 1 699 0
 879 000a 0023     		movs	r3, #0
 880 000c FB71     		strb	r3, [r7, #7]
 881 000e 0BE0     		b	.L50
 882              	.L52:
 700:Generated_Source\PSoC5/CapSense_CSD_CSHL.c ****     {
 701:Generated_Source\PSoC5/CapSense_CSD_CSHL.c ****         if (CapSense_CSD_CheckIsWidgetActive(i) != 0u)
 883              		.loc 1 701 0
 884 0010 FB79     		ldrb	r3, [r7, #7]	@ zero_extendqisi2
 885 0012 1846     		mov	r0, r3
 886 0014 FFF7FEFF 		bl	CapSense_CSD_CheckIsWidgetActive
 887 0018 0346     		mov	r3, r0
ARM GAS  C:\Users\ash750\AppData\Local\Temp\ccoL50IN.s 			page 29


 888 001a 002B     		cmp	r3, #0
 889 001c 01D0     		beq	.L51
 702:Generated_Source\PSoC5/CapSense_CSD_CSHL.c ****         {
 703:Generated_Source\PSoC5/CapSense_CSD_CSHL.c ****             state = CapSense_CSD_WIDGET_IS_ACTIVE;
 890              		.loc 1 703 0
 891 001e 0123     		movs	r3, #1
 892 0020 BB71     		strb	r3, [r7, #6]
 893              	.L51:
 699:Generated_Source\PSoC5/CapSense_CSD_CSHL.c ****     {
 894              		.loc 1 699 0 discriminator 2
 895 0022 FB79     		ldrb	r3, [r7, #7]	@ zero_extendqisi2
 896 0024 0133     		adds	r3, r3, #1
 897 0026 FB71     		strb	r3, [r7, #7]
 898              	.L50:
 699:Generated_Source\PSoC5/CapSense_CSD_CSHL.c ****     {
 899              		.loc 1 699 0 is_stmt 0 discriminator 1
 900 0028 FB79     		ldrb	r3, [r7, #7]	@ zero_extendqisi2
 901 002a 002B     		cmp	r3, #0
 902 002c F0D0     		beq	.L52
 704:Generated_Source\PSoC5/CapSense_CSD_CSHL.c ****         }
 705:Generated_Source\PSoC5/CapSense_CSD_CSHL.c ****     }
 706:Generated_Source\PSoC5/CapSense_CSD_CSHL.c ****     
 707:Generated_Source\PSoC5/CapSense_CSD_CSHL.c **** 
 708:Generated_Source\PSoC5/CapSense_CSD_CSHL.c ****     return (state);
 903              		.loc 1 708 0 is_stmt 1
 904 002e BB79     		ldrb	r3, [r7, #6]	@ zero_extendqisi2
 709:Generated_Source\PSoC5/CapSense_CSD_CSHL.c **** }
 905              		.loc 1 709 0
 906 0030 1846     		mov	r0, r3
 907 0032 0837     		adds	r7, r7, #8
 908              		.cfi_def_cfa_offset 8
 909 0034 BD46     		mov	sp, r7
 910              		.cfi_def_cfa_register 13
 911              		@ sp needed
 912 0036 80BD     		pop	{r7, pc}
 913              		.cfi_endproc
 914              	.LFE8:
 915              		.size	CapSense_CSD_CheckIsAnyWidgetActive, .-CapSense_CSD_CheckIsAnyWidgetActive
 916              		.section	.text.CapSense_CSD_EnableWidget,"ax",%progbits
 917              		.align	2
 918              		.global	CapSense_CSD_EnableWidget
 919              		.thumb
 920              		.thumb_func
 921              		.type	CapSense_CSD_EnableWidget, %function
 922              	CapSense_CSD_EnableWidget:
 923              	.LFB9:
 710:Generated_Source\PSoC5/CapSense_CSD_CSHL.c **** 
 711:Generated_Source\PSoC5/CapSense_CSD_CSHL.c **** 
 712:Generated_Source\PSoC5/CapSense_CSD_CSHL.c **** /*******************************************************************************
 713:Generated_Source\PSoC5/CapSense_CSD_CSHL.c **** * Function Name: CapSense_CSD_EnableWidget
 714:Generated_Source\PSoC5/CapSense_CSD_CSHL.c **** ********************************************************************************
 715:Generated_Source\PSoC5/CapSense_CSD_CSHL.c **** *
 716:Generated_Source\PSoC5/CapSense_CSD_CSHL.c **** * Summary:
 717:Generated_Source\PSoC5/CapSense_CSD_CSHL.c **** *  Enable all widget elements (sensors) to scanning process.
 718:Generated_Source\PSoC5/CapSense_CSD_CSHL.c **** *
 719:Generated_Source\PSoC5/CapSense_CSD_CSHL.c **** * Parameters:
 720:Generated_Source\PSoC5/CapSense_CSD_CSHL.c **** *  widget:  widget number.
ARM GAS  C:\Users\ash750\AppData\Local\Temp\ccoL50IN.s 			page 30


 721:Generated_Source\PSoC5/CapSense_CSD_CSHL.c **** *
 722:Generated_Source\PSoC5/CapSense_CSD_CSHL.c **** * Return:
 723:Generated_Source\PSoC5/CapSense_CSD_CSHL.c **** *  None
 724:Generated_Source\PSoC5/CapSense_CSD_CSHL.c **** *
 725:Generated_Source\PSoC5/CapSense_CSD_CSHL.c **** * Global Variables:
 726:Generated_Source\PSoC5/CapSense_CSD_CSHL.c **** *  CapSense_CSD_sensorEnableMask[] - used to store the sensor scanning 
 727:Generated_Source\PSoC5/CapSense_CSD_CSHL.c **** *  state.
 728:Generated_Source\PSoC5/CapSense_CSD_CSHL.c **** *  CapSense_CSD_sensorEnableMask[0] contains the masked bits for sensors 
 729:Generated_Source\PSoC5/CapSense_CSD_CSHL.c **** *  0 through 7 (sensor 0 is bit 0, sensor 1 is bit 1).
 730:Generated_Source\PSoC5/CapSense_CSD_CSHL.c **** *  CapSense_CSD_sensorEnableMask[1] contains the masked bits for 
 731:Generated_Source\PSoC5/CapSense_CSD_CSHL.c **** *  sensors 8 through 15 (if needed), and so on.
 732:Generated_Source\PSoC5/CapSense_CSD_CSHL.c **** *  0 - sensor doesn't scan by CapSense_CSD_ScanEnabledWidgets().
 733:Generated_Source\PSoC5/CapSense_CSD_CSHL.c **** *  1 - sensor scans by CapSense_CSD_ScanEnabledWidgets().
 734:Generated_Source\PSoC5/CapSense_CSD_CSHL.c **** *
 735:Generated_Source\PSoC5/CapSense_CSD_CSHL.c **** * Reentrant:
 736:Generated_Source\PSoC5/CapSense_CSD_CSHL.c **** *  No
 737:Generated_Source\PSoC5/CapSense_CSD_CSHL.c **** *
 738:Generated_Source\PSoC5/CapSense_CSD_CSHL.c **** *******************************************************************************/
 739:Generated_Source\PSoC5/CapSense_CSD_CSHL.c **** void CapSense_CSD_EnableWidget(uint8 widget)
 740:Generated_Source\PSoC5/CapSense_CSD_CSHL.c ****                                    
 741:Generated_Source\PSoC5/CapSense_CSD_CSHL.c **** {
 924              		.loc 1 741 0
 925              		.cfi_startproc
 926              		@ args = 0, pretend = 0, frame = 16
 927              		@ frame_needed = 1, uses_anonymous_args = 0
 928              		@ link register save eliminated.
 929 0000 80B4     		push	{r7}
 930              		.cfi_def_cfa_offset 4
 931              		.cfi_offset 7, -4
 932 0002 85B0     		sub	sp, sp, #20
 933              		.cfi_def_cfa_offset 24
 934 0004 00AF     		add	r7, sp, #0
 935              		.cfi_def_cfa_register 7
 936 0006 0346     		mov	r3, r0
 937 0008 FB71     		strb	r3, [r7, #7]
 742:Generated_Source\PSoC5/CapSense_CSD_CSHL.c ****     uint8 pos;
 743:Generated_Source\PSoC5/CapSense_CSD_CSHL.c ****     uint8 enMask;
 744:Generated_Source\PSoC5/CapSense_CSD_CSHL.c ****     uint8 rawIndex = CapSense_CSD_rawDataIndex[widget];
 938              		.loc 1 744 0
 939 000a 0023     		movs	r3, #0
 940 000c FB73     		strb	r3, [r7, #15]
 745:Generated_Source\PSoC5/CapSense_CSD_CSHL.c ****     uint8 numberOfSensors = CapSense_CSD_numberOfSensors[widget] + rawIndex;
 941              		.loc 1 745 0
 942 000e 0122     		movs	r2, #1
 943 0010 FB7B     		ldrb	r3, [r7, #15]
 944 0012 1344     		add	r3, r3, r2
 945 0014 BB73     		strb	r3, [r7, #14]
 946              	.L55:
 746:Generated_Source\PSoC5/CapSense_CSD_CSHL.c ****     
 747:Generated_Source\PSoC5/CapSense_CSD_CSHL.c ****     /* Enable all sensors of the widget */
 748:Generated_Source\PSoC5/CapSense_CSD_CSHL.c ****     do
 749:Generated_Source\PSoC5/CapSense_CSD_CSHL.c ****     {
 750:Generated_Source\PSoC5/CapSense_CSD_CSHL.c ****         pos = (rawIndex >> 3u);
 947              		.loc 1 750 0 discriminator 1
 948 0016 FB7B     		ldrb	r3, [r7, #15]	@ zero_extendqisi2
 949 0018 DB08     		lsrs	r3, r3, #3
 950 001a 7B73     		strb	r3, [r7, #13]
ARM GAS  C:\Users\ash750\AppData\Local\Temp\ccoL50IN.s 			page 31


 751:Generated_Source\PSoC5/CapSense_CSD_CSHL.c ****         enMask = 0x01u << (rawIndex & 0x07u);
 951              		.loc 1 751 0 discriminator 1
 952 001c FB7B     		ldrb	r3, [r7, #15]	@ zero_extendqisi2
 953 001e 03F00703 		and	r3, r3, #7
 954 0022 0122     		movs	r2, #1
 955 0024 02FA03F3 		lsl	r3, r2, r3
 956 0028 3B73     		strb	r3, [r7, #12]
 752:Generated_Source\PSoC5/CapSense_CSD_CSHL.c ****         
 753:Generated_Source\PSoC5/CapSense_CSD_CSHL.c ****         CapSense_CSD_sensorEnableMask[pos] |= enMask;
 957              		.loc 1 753 0 discriminator 1
 958 002a 7B7B     		ldrb	r3, [r7, #13]	@ zero_extendqisi2
 959 002c 7A7B     		ldrb	r2, [r7, #13]	@ zero_extendqisi2
 960 002e 0949     		ldr	r1, .L56
 961 0030 895C     		ldrb	r1, [r1, r2]	@ zero_extendqisi2
 962 0032 3A7B     		ldrb	r2, [r7, #12]
 963 0034 0A43     		orrs	r2, r2, r1
 964 0036 D1B2     		uxtb	r1, r2
 965 0038 064A     		ldr	r2, .L56
 966 003a D154     		strb	r1, [r2, r3]
 754:Generated_Source\PSoC5/CapSense_CSD_CSHL.c ****         rawIndex++;
 967              		.loc 1 754 0 discriminator 1
 968 003c FB7B     		ldrb	r3, [r7, #15]	@ zero_extendqisi2
 969 003e 0133     		adds	r3, r3, #1
 970 0040 FB73     		strb	r3, [r7, #15]
 755:Generated_Source\PSoC5/CapSense_CSD_CSHL.c ****     }
 756:Generated_Source\PSoC5/CapSense_CSD_CSHL.c ****     while(rawIndex < numberOfSensors);
 971              		.loc 1 756 0 discriminator 1
 972 0042 FA7B     		ldrb	r2, [r7, #15]	@ zero_extendqisi2
 973 0044 BB7B     		ldrb	r3, [r7, #14]	@ zero_extendqisi2
 974 0046 9A42     		cmp	r2, r3
 975 0048 E5D3     		bcc	.L55
 757:Generated_Source\PSoC5/CapSense_CSD_CSHL.c ****     
 758:Generated_Source\PSoC5/CapSense_CSD_CSHL.c **** 
 759:Generated_Source\PSoC5/CapSense_CSD_CSHL.c **** }
 976              		.loc 1 759 0
 977 004a 00BF     		nop
 978 004c 1437     		adds	r7, r7, #20
 979              		.cfi_def_cfa_offset 4
 980 004e BD46     		mov	sp, r7
 981              		.cfi_def_cfa_register 13
 982              		@ sp needed
 983 0050 80BC     		pop	{r7}
 984              		.cfi_restore 7
 985              		.cfi_def_cfa_offset 0
 986 0052 7047     		bx	lr
 987              	.L57:
 988              		.align	2
 989              	.L56:
 990 0054 00000000 		.word	CapSense_CSD_sensorEnableMask
 991              		.cfi_endproc
 992              	.LFE9:
 993              		.size	CapSense_CSD_EnableWidget, .-CapSense_CSD_EnableWidget
 994              		.section	.text.CapSense_CSD_DisableWidget,"ax",%progbits
 995              		.align	2
 996              		.global	CapSense_CSD_DisableWidget
 997              		.thumb
 998              		.thumb_func
ARM GAS  C:\Users\ash750\AppData\Local\Temp\ccoL50IN.s 			page 32


 999              		.type	CapSense_CSD_DisableWidget, %function
 1000              	CapSense_CSD_DisableWidget:
 1001              	.LFB10:
 760:Generated_Source\PSoC5/CapSense_CSD_CSHL.c **** 
 761:Generated_Source\PSoC5/CapSense_CSD_CSHL.c **** 
 762:Generated_Source\PSoC5/CapSense_CSD_CSHL.c **** /*******************************************************************************
 763:Generated_Source\PSoC5/CapSense_CSD_CSHL.c **** * Function Name: CapSense_CSD_DisableWidget
 764:Generated_Source\PSoC5/CapSense_CSD_CSHL.c **** ********************************************************************************
 765:Generated_Source\PSoC5/CapSense_CSD_CSHL.c **** *
 766:Generated_Source\PSoC5/CapSense_CSD_CSHL.c **** * Summary:
 767:Generated_Source\PSoC5/CapSense_CSD_CSHL.c **** *  Disable all widget elements (sensors) from scanning process.
 768:Generated_Source\PSoC5/CapSense_CSD_CSHL.c **** *
 769:Generated_Source\PSoC5/CapSense_CSD_CSHL.c **** * Parameters:
 770:Generated_Source\PSoC5/CapSense_CSD_CSHL.c **** *  widget:  widget number.
 771:Generated_Source\PSoC5/CapSense_CSD_CSHL.c **** *
 772:Generated_Source\PSoC5/CapSense_CSD_CSHL.c **** * Return:
 773:Generated_Source\PSoC5/CapSense_CSD_CSHL.c **** *  None
 774:Generated_Source\PSoC5/CapSense_CSD_CSHL.c **** *
 775:Generated_Source\PSoC5/CapSense_CSD_CSHL.c **** * Global Variables:
 776:Generated_Source\PSoC5/CapSense_CSD_CSHL.c **** *  CapSense_CSD_sensorEnableMask[] - used to store the sensor scanning 
 777:Generated_Source\PSoC5/CapSense_CSD_CSHL.c **** *  state.
 778:Generated_Source\PSoC5/CapSense_CSD_CSHL.c **** *  CapSense_CSD_sensorEnableMask[0] contains the masked bits for sensors 
 779:Generated_Source\PSoC5/CapSense_CSD_CSHL.c **** *  0 through 7 (sensor 0 is bit 0, sensor 1 is bit 1).
 780:Generated_Source\PSoC5/CapSense_CSD_CSHL.c **** *  CapSense_CSD_sensorEnableMask[1] contains the masked bits for 
 781:Generated_Source\PSoC5/CapSense_CSD_CSHL.c **** *  sensors 8 through 15 (if needed), and so on.
 782:Generated_Source\PSoC5/CapSense_CSD_CSHL.c **** *  0 - sensor doesn't scan by CapSense_CSD_ScanEnabledWidgets().
 783:Generated_Source\PSoC5/CapSense_CSD_CSHL.c **** *  1 - sensor scans by CapSense_CSD_ScanEnabledWidgets().
 784:Generated_Source\PSoC5/CapSense_CSD_CSHL.c **** *
 785:Generated_Source\PSoC5/CapSense_CSD_CSHL.c **** * Reentrant:
 786:Generated_Source\PSoC5/CapSense_CSD_CSHL.c **** *  No
 787:Generated_Source\PSoC5/CapSense_CSD_CSHL.c **** *
 788:Generated_Source\PSoC5/CapSense_CSD_CSHL.c **** *******************************************************************************/
 789:Generated_Source\PSoC5/CapSense_CSD_CSHL.c **** void CapSense_CSD_DisableWidget(uint8 widget)
 790:Generated_Source\PSoC5/CapSense_CSD_CSHL.c ****                                     
 791:Generated_Source\PSoC5/CapSense_CSD_CSHL.c **** {
 1002              		.loc 1 791 0
 1003              		.cfi_startproc
 1004              		@ args = 0, pretend = 0, frame = 16
 1005              		@ frame_needed = 1, uses_anonymous_args = 0
 1006              		@ link register save eliminated.
 1007 0000 80B4     		push	{r7}
 1008              		.cfi_def_cfa_offset 4
 1009              		.cfi_offset 7, -4
 1010 0002 85B0     		sub	sp, sp, #20
 1011              		.cfi_def_cfa_offset 24
 1012 0004 00AF     		add	r7, sp, #0
 1013              		.cfi_def_cfa_register 7
 1014 0006 0346     		mov	r3, r0
 1015 0008 FB71     		strb	r3, [r7, #7]
 792:Generated_Source\PSoC5/CapSense_CSD_CSHL.c ****     uint8 pos;
 793:Generated_Source\PSoC5/CapSense_CSD_CSHL.c ****     uint8 enMask;
 794:Generated_Source\PSoC5/CapSense_CSD_CSHL.c ****     uint8 rawIndex = CapSense_CSD_rawDataIndex[widget];
 1016              		.loc 1 794 0
 1017 000a 0023     		movs	r3, #0
 1018 000c FB73     		strb	r3, [r7, #15]
 795:Generated_Source\PSoC5/CapSense_CSD_CSHL.c ****     uint8 numberOfSensors = CapSense_CSD_numberOfSensors[widget] + rawIndex;
 1019              		.loc 1 795 0
ARM GAS  C:\Users\ash750\AppData\Local\Temp\ccoL50IN.s 			page 33


 1020 000e 0122     		movs	r2, #1
 1021 0010 FB7B     		ldrb	r3, [r7, #15]
 1022 0012 1344     		add	r3, r3, r2
 1023 0014 BB73     		strb	r3, [r7, #14]
 1024              	.L59:
 796:Generated_Source\PSoC5/CapSense_CSD_CSHL.c ****    
 797:Generated_Source\PSoC5/CapSense_CSD_CSHL.c ****     /* Disable all sensors of the widget */
 798:Generated_Source\PSoC5/CapSense_CSD_CSHL.c ****     do
 799:Generated_Source\PSoC5/CapSense_CSD_CSHL.c ****     {
 800:Generated_Source\PSoC5/CapSense_CSD_CSHL.c ****         pos = (rawIndex >> 3u);
 1025              		.loc 1 800 0 discriminator 1
 1026 0016 FB7B     		ldrb	r3, [r7, #15]	@ zero_extendqisi2
 1027 0018 DB08     		lsrs	r3, r3, #3
 1028 001a 7B73     		strb	r3, [r7, #13]
 801:Generated_Source\PSoC5/CapSense_CSD_CSHL.c ****         enMask = 0x01u << (rawIndex & 0x07u);
 1029              		.loc 1 801 0 discriminator 1
 1030 001c FB7B     		ldrb	r3, [r7, #15]	@ zero_extendqisi2
 1031 001e 03F00703 		and	r3, r3, #7
 1032 0022 0122     		movs	r2, #1
 1033 0024 02FA03F3 		lsl	r3, r2, r3
 1034 0028 3B73     		strb	r3, [r7, #12]
 802:Generated_Source\PSoC5/CapSense_CSD_CSHL.c ****         
 803:Generated_Source\PSoC5/CapSense_CSD_CSHL.c ****         CapSense_CSD_sensorEnableMask[pos] &= (uint8)~enMask;
 1035              		.loc 1 803 0 discriminator 1
 1036 002a 7B7B     		ldrb	r3, [r7, #13]	@ zero_extendqisi2
 1037 002c 7A7B     		ldrb	r2, [r7, #13]	@ zero_extendqisi2
 1038 002e 0A49     		ldr	r1, .L60
 1039 0030 895C     		ldrb	r1, [r1, r2]	@ zero_extendqisi2
 1040 0032 3A7B     		ldrb	r2, [r7, #12]
 1041 0034 D243     		mvns	r2, r2
 1042 0036 D2B2     		uxtb	r2, r2
 1043 0038 0A40     		ands	r2, r2, r1
 1044 003a D1B2     		uxtb	r1, r2
 1045 003c 064A     		ldr	r2, .L60
 1046 003e D154     		strb	r1, [r2, r3]
 804:Generated_Source\PSoC5/CapSense_CSD_CSHL.c ****         rawIndex++;
 1047              		.loc 1 804 0 discriminator 1
 1048 0040 FB7B     		ldrb	r3, [r7, #15]	@ zero_extendqisi2
 1049 0042 0133     		adds	r3, r3, #1
 1050 0044 FB73     		strb	r3, [r7, #15]
 805:Generated_Source\PSoC5/CapSense_CSD_CSHL.c ****     }
 806:Generated_Source\PSoC5/CapSense_CSD_CSHL.c ****     while(rawIndex < numberOfSensors);
 1051              		.loc 1 806 0 discriminator 1
 1052 0046 FA7B     		ldrb	r2, [r7, #15]	@ zero_extendqisi2
 1053 0048 BB7B     		ldrb	r3, [r7, #14]	@ zero_extendqisi2
 1054 004a 9A42     		cmp	r2, r3
 1055 004c E3D3     		bcc	.L59
 807:Generated_Source\PSoC5/CapSense_CSD_CSHL.c ****     
 808:Generated_Source\PSoC5/CapSense_CSD_CSHL.c **** 
 809:Generated_Source\PSoC5/CapSense_CSD_CSHL.c **** }
 1056              		.loc 1 809 0
 1057 004e 00BF     		nop
 1058 0050 1437     		adds	r7, r7, #20
 1059              		.cfi_def_cfa_offset 4
 1060 0052 BD46     		mov	sp, r7
 1061              		.cfi_def_cfa_register 13
 1062              		@ sp needed
ARM GAS  C:\Users\ash750\AppData\Local\Temp\ccoL50IN.s 			page 34


 1063 0054 80BC     		pop	{r7}
 1064              		.cfi_restore 7
 1065              		.cfi_def_cfa_offset 0
 1066 0056 7047     		bx	lr
 1067              	.L61:
 1068              		.align	2
 1069              	.L60:
 1070 0058 00000000 		.word	CapSense_CSD_sensorEnableMask
 1071              		.cfi_endproc
 1072              	.LFE10:
 1073              		.size	CapSense_CSD_DisableWidget, .-CapSense_CSD_DisableWidget
 1074              		.text
 1075              	.Letext0:
 1076              		.file 2 "Generated_Source\\PSoC5\\cytypes.h"
 1077              		.file 3 "Generated_Source\\PSoC5\\CapSense_CSD.h"
 1078              		.file 4 "Generated_Source\\PSoC5\\CapSense_CSD_CSHL.h"